ARM GAS  C:\Users\user\AppData\Local\Temp\ccilzRKI.s 			page 1


   1              		.syntax unified
   2              		.cpu cortex-m3
   3              		.fpu softvfp
   4              		.eabi_attribute 20, 1
   5              		.eabi_attribute 21, 1
   6              		.eabi_attribute 23, 3
   7              		.eabi_attribute 24, 1
   8              		.eabi_attribute 25, 1
   9              		.eabi_attribute 26, 1
  10              		.eabi_attribute 30, 1
  11              		.eabi_attribute 34, 1
  12              		.eabi_attribute 18, 4
  13              		.thumb
  14              		.syntax unified
  15              		.file	"ISR_HC_SR04_1.c"
  16              		.text
  17              	.Ltext0:
  18              		.cfi_sections	.debug_frame
  19              		.section	.text.ISR_HC_SR04_1_SetVector,"ax",%progbits
  20              		.align	2
  21              		.global	ISR_HC_SR04_1_SetVector
  22              		.thumb
  23              		.thumb_func
  24              		.type	ISR_HC_SR04_1_SetVector, %function
  25              	ISR_HC_SR04_1_SetVector:
  26              	.LFB4:
  27              		.file 1 "Generated_Source\\PSoC5\\ISR_HC_SR04_1.c"
   1:Generated_Source\PSoC5/ISR_HC_SR04_1.c **** /*******************************************************************************
   2:Generated_Source\PSoC5/ISR_HC_SR04_1.c **** * File Name: ISR_HC_SR04_1.c  
   3:Generated_Source\PSoC5/ISR_HC_SR04_1.c **** * Version 1.71
   4:Generated_Source\PSoC5/ISR_HC_SR04_1.c **** *
   5:Generated_Source\PSoC5/ISR_HC_SR04_1.c **** *  Description:
   6:Generated_Source\PSoC5/ISR_HC_SR04_1.c **** *   API for controlling the state of an interrupt.
   7:Generated_Source\PSoC5/ISR_HC_SR04_1.c **** *
   8:Generated_Source\PSoC5/ISR_HC_SR04_1.c **** *
   9:Generated_Source\PSoC5/ISR_HC_SR04_1.c **** *  Note:
  10:Generated_Source\PSoC5/ISR_HC_SR04_1.c **** *
  11:Generated_Source\PSoC5/ISR_HC_SR04_1.c **** ********************************************************************************
  12:Generated_Source\PSoC5/ISR_HC_SR04_1.c **** * Copyright 2008-2015, Cypress Semiconductor Corporation.  All rights reserved.
  13:Generated_Source\PSoC5/ISR_HC_SR04_1.c **** * You may use this file only in accordance with the license, terms, conditions, 
  14:Generated_Source\PSoC5/ISR_HC_SR04_1.c **** * disclaimers, and limitations in the end user license agreement accompanying 
  15:Generated_Source\PSoC5/ISR_HC_SR04_1.c **** * the software package with which this file was provided.
  16:Generated_Source\PSoC5/ISR_HC_SR04_1.c **** *******************************************************************************/
  17:Generated_Source\PSoC5/ISR_HC_SR04_1.c **** 
  18:Generated_Source\PSoC5/ISR_HC_SR04_1.c **** 
  19:Generated_Source\PSoC5/ISR_HC_SR04_1.c **** #include <cydevice_trm.h>
  20:Generated_Source\PSoC5/ISR_HC_SR04_1.c **** #include <CyLib.h>
  21:Generated_Source\PSoC5/ISR_HC_SR04_1.c **** #include <ISR_HC_SR04_1.h>
  22:Generated_Source\PSoC5/ISR_HC_SR04_1.c **** #include "cyapicallbacks.h"
  23:Generated_Source\PSoC5/ISR_HC_SR04_1.c **** 
  24:Generated_Source\PSoC5/ISR_HC_SR04_1.c **** #if !defined(ISR_HC_SR04_1__REMOVED) /* Check for removal by optimization */
  25:Generated_Source\PSoC5/ISR_HC_SR04_1.c **** 
  26:Generated_Source\PSoC5/ISR_HC_SR04_1.c **** /*******************************************************************************
  27:Generated_Source\PSoC5/ISR_HC_SR04_1.c **** *  Place your includes, defines and code here 
  28:Generated_Source\PSoC5/ISR_HC_SR04_1.c **** ********************************************************************************/
  29:Generated_Source\PSoC5/ISR_HC_SR04_1.c **** #include "HC_SR04_1_REG.h"
  30:Generated_Source\PSoC5/ISR_HC_SR04_1.c **** #include "User_LED.h"
ARM GAS  C:\Users\user\AppData\Local\Temp\ccilzRKI.s 			page 2


  31:Generated_Source\PSoC5/ISR_HC_SR04_1.c **** /* `#START ISR_HC_SR04_1_intc` */
  32:Generated_Source\PSoC5/ISR_HC_SR04_1.c ****     
  33:Generated_Source\PSoC5/ISR_HC_SR04_1.c **** 
  34:Generated_Source\PSoC5/ISR_HC_SR04_1.c **** /* `#END` */
  35:Generated_Source\PSoC5/ISR_HC_SR04_1.c **** 
  36:Generated_Source\PSoC5/ISR_HC_SR04_1.c **** #ifndef CYINT_IRQ_BASE
  37:Generated_Source\PSoC5/ISR_HC_SR04_1.c **** #define CYINT_IRQ_BASE      16
  38:Generated_Source\PSoC5/ISR_HC_SR04_1.c **** #endif /* CYINT_IRQ_BASE */
  39:Generated_Source\PSoC5/ISR_HC_SR04_1.c **** #ifndef CYINT_VECT_TABLE
  40:Generated_Source\PSoC5/ISR_HC_SR04_1.c **** #define CYINT_VECT_TABLE    ((cyisraddress **) CYREG_NVIC_VECT_OFFSET)
  41:Generated_Source\PSoC5/ISR_HC_SR04_1.c **** #endif /* CYINT_VECT_TABLE */
  42:Generated_Source\PSoC5/ISR_HC_SR04_1.c **** 
  43:Generated_Source\PSoC5/ISR_HC_SR04_1.c **** /* Declared in startup, used to set unused interrupts to. */
  44:Generated_Source\PSoC5/ISR_HC_SR04_1.c **** CY_ISR_PROTO(IntDefaultHandler);
  45:Generated_Source\PSoC5/ISR_HC_SR04_1.c **** 
  46:Generated_Source\PSoC5/ISR_HC_SR04_1.c **** 
  47:Generated_Source\PSoC5/ISR_HC_SR04_1.c **** /*******************************************************************************
  48:Generated_Source\PSoC5/ISR_HC_SR04_1.c **** * Function Name: ISR_HC_SR04_1_Start
  49:Generated_Source\PSoC5/ISR_HC_SR04_1.c **** ********************************************************************************
  50:Generated_Source\PSoC5/ISR_HC_SR04_1.c **** *
  51:Generated_Source\PSoC5/ISR_HC_SR04_1.c **** * Summary:
  52:Generated_Source\PSoC5/ISR_HC_SR04_1.c **** *  Set up the interrupt and enable it. This function disables the interrupt, 
  53:Generated_Source\PSoC5/ISR_HC_SR04_1.c **** *  sets the default interrupt vector, sets the priority from the value in the
  54:Generated_Source\PSoC5/ISR_HC_SR04_1.c **** *  Design Wide Resources Interrupt Editor, then enables the interrupt to the 
  55:Generated_Source\PSoC5/ISR_HC_SR04_1.c **** *  interrupt controller.
  56:Generated_Source\PSoC5/ISR_HC_SR04_1.c **** *
  57:Generated_Source\PSoC5/ISR_HC_SR04_1.c **** * Parameters:  
  58:Generated_Source\PSoC5/ISR_HC_SR04_1.c **** *   None
  59:Generated_Source\PSoC5/ISR_HC_SR04_1.c **** *
  60:Generated_Source\PSoC5/ISR_HC_SR04_1.c **** * Return:
  61:Generated_Source\PSoC5/ISR_HC_SR04_1.c **** *   None
  62:Generated_Source\PSoC5/ISR_HC_SR04_1.c **** *
  63:Generated_Source\PSoC5/ISR_HC_SR04_1.c **** *******************************************************************************/
  64:Generated_Source\PSoC5/ISR_HC_SR04_1.c **** void ISR_HC_SR04_1_Start(void)
  65:Generated_Source\PSoC5/ISR_HC_SR04_1.c **** {
  66:Generated_Source\PSoC5/ISR_HC_SR04_1.c ****     /* For all we know the interrupt is active. */
  67:Generated_Source\PSoC5/ISR_HC_SR04_1.c ****     ISR_HC_SR04_1_Disable();
  68:Generated_Source\PSoC5/ISR_HC_SR04_1.c **** 
  69:Generated_Source\PSoC5/ISR_HC_SR04_1.c ****     /* Set the ISR to point to the ISR_HC_SR04_1 Interrupt. */
  70:Generated_Source\PSoC5/ISR_HC_SR04_1.c ****     ISR_HC_SR04_1_SetVector(&ISR_HC_SR04_1_Interrupt);
  71:Generated_Source\PSoC5/ISR_HC_SR04_1.c **** 
  72:Generated_Source\PSoC5/ISR_HC_SR04_1.c ****     /* Set the priority. */
  73:Generated_Source\PSoC5/ISR_HC_SR04_1.c ****     ISR_HC_SR04_1_SetPriority((uint8)ISR_HC_SR04_1_INTC_PRIOR_NUMBER);
  74:Generated_Source\PSoC5/ISR_HC_SR04_1.c **** 
  75:Generated_Source\PSoC5/ISR_HC_SR04_1.c ****     /* Enable it. */
  76:Generated_Source\PSoC5/ISR_HC_SR04_1.c ****     ISR_HC_SR04_1_Enable();
  77:Generated_Source\PSoC5/ISR_HC_SR04_1.c **** }
  78:Generated_Source\PSoC5/ISR_HC_SR04_1.c **** 
  79:Generated_Source\PSoC5/ISR_HC_SR04_1.c **** 
  80:Generated_Source\PSoC5/ISR_HC_SR04_1.c **** /*******************************************************************************
  81:Generated_Source\PSoC5/ISR_HC_SR04_1.c **** * Function Name: ISR_HC_SR04_1_StartEx
  82:Generated_Source\PSoC5/ISR_HC_SR04_1.c **** ********************************************************************************
  83:Generated_Source\PSoC5/ISR_HC_SR04_1.c **** *
  84:Generated_Source\PSoC5/ISR_HC_SR04_1.c **** * Summary:
  85:Generated_Source\PSoC5/ISR_HC_SR04_1.c **** *  Sets up the interrupt and enables it. This function disables the interrupt,
  86:Generated_Source\PSoC5/ISR_HC_SR04_1.c **** *  sets the interrupt vector based on the address passed in, sets the priority 
  87:Generated_Source\PSoC5/ISR_HC_SR04_1.c **** *  from the value in the Design Wide Resources Interrupt Editor, then enables 
ARM GAS  C:\Users\user\AppData\Local\Temp\ccilzRKI.s 			page 3


  88:Generated_Source\PSoC5/ISR_HC_SR04_1.c **** *  the interrupt to the interrupt controller.
  89:Generated_Source\PSoC5/ISR_HC_SR04_1.c **** *  
  90:Generated_Source\PSoC5/ISR_HC_SR04_1.c **** *  When defining ISR functions, the CY_ISR and CY_ISR_PROTO macros should be 
  91:Generated_Source\PSoC5/ISR_HC_SR04_1.c **** *  used to provide consistent definition across compilers:
  92:Generated_Source\PSoC5/ISR_HC_SR04_1.c **** *  
  93:Generated_Source\PSoC5/ISR_HC_SR04_1.c **** *  Function definition example:
  94:Generated_Source\PSoC5/ISR_HC_SR04_1.c **** *   CY_ISR(MyISR)
  95:Generated_Source\PSoC5/ISR_HC_SR04_1.c **** *   {
  96:Generated_Source\PSoC5/ISR_HC_SR04_1.c **** *   }
  97:Generated_Source\PSoC5/ISR_HC_SR04_1.c **** *   Function prototype example:
  98:Generated_Source\PSoC5/ISR_HC_SR04_1.c **** *   CY_ISR_PROTO(MyISR);
  99:Generated_Source\PSoC5/ISR_HC_SR04_1.c **** *
 100:Generated_Source\PSoC5/ISR_HC_SR04_1.c **** * Parameters:  
 101:Generated_Source\PSoC5/ISR_HC_SR04_1.c **** *   address: Address of the ISR to set in the interrupt vector table.
 102:Generated_Source\PSoC5/ISR_HC_SR04_1.c **** *
 103:Generated_Source\PSoC5/ISR_HC_SR04_1.c **** * Return:
 104:Generated_Source\PSoC5/ISR_HC_SR04_1.c **** *   None
 105:Generated_Source\PSoC5/ISR_HC_SR04_1.c **** *
 106:Generated_Source\PSoC5/ISR_HC_SR04_1.c **** *******************************************************************************/
 107:Generated_Source\PSoC5/ISR_HC_SR04_1.c **** void ISR_HC_SR04_1_StartEx(cyisraddress address)
 108:Generated_Source\PSoC5/ISR_HC_SR04_1.c **** {
 109:Generated_Source\PSoC5/ISR_HC_SR04_1.c ****     /* For all we know the interrupt is active. */
 110:Generated_Source\PSoC5/ISR_HC_SR04_1.c ****     ISR_HC_SR04_1_Disable();
 111:Generated_Source\PSoC5/ISR_HC_SR04_1.c **** 
 112:Generated_Source\PSoC5/ISR_HC_SR04_1.c ****     /* Set the ISR to point to the ISR_HC_SR04_1 Interrupt. */
 113:Generated_Source\PSoC5/ISR_HC_SR04_1.c ****     ISR_HC_SR04_1_SetVector(address);
 114:Generated_Source\PSoC5/ISR_HC_SR04_1.c **** 
 115:Generated_Source\PSoC5/ISR_HC_SR04_1.c ****     /* Set the priority. */
 116:Generated_Source\PSoC5/ISR_HC_SR04_1.c ****     ISR_HC_SR04_1_SetPriority((uint8)ISR_HC_SR04_1_INTC_PRIOR_NUMBER);
 117:Generated_Source\PSoC5/ISR_HC_SR04_1.c **** 
 118:Generated_Source\PSoC5/ISR_HC_SR04_1.c ****     /* Enable it. */
 119:Generated_Source\PSoC5/ISR_HC_SR04_1.c ****     ISR_HC_SR04_1_Enable();
 120:Generated_Source\PSoC5/ISR_HC_SR04_1.c **** }
 121:Generated_Source\PSoC5/ISR_HC_SR04_1.c **** 
 122:Generated_Source\PSoC5/ISR_HC_SR04_1.c **** 
 123:Generated_Source\PSoC5/ISR_HC_SR04_1.c **** /*******************************************************************************
 124:Generated_Source\PSoC5/ISR_HC_SR04_1.c **** * Function Name: ISR_HC_SR04_1_Stop
 125:Generated_Source\PSoC5/ISR_HC_SR04_1.c **** ********************************************************************************
 126:Generated_Source\PSoC5/ISR_HC_SR04_1.c **** *
 127:Generated_Source\PSoC5/ISR_HC_SR04_1.c **** * Summary:
 128:Generated_Source\PSoC5/ISR_HC_SR04_1.c **** *   Disables and removes the interrupt.
 129:Generated_Source\PSoC5/ISR_HC_SR04_1.c **** *
 130:Generated_Source\PSoC5/ISR_HC_SR04_1.c **** * Parameters:  
 131:Generated_Source\PSoC5/ISR_HC_SR04_1.c **** *   None
 132:Generated_Source\PSoC5/ISR_HC_SR04_1.c **** *
 133:Generated_Source\PSoC5/ISR_HC_SR04_1.c **** * Return:
 134:Generated_Source\PSoC5/ISR_HC_SR04_1.c **** *   None
 135:Generated_Source\PSoC5/ISR_HC_SR04_1.c **** *
 136:Generated_Source\PSoC5/ISR_HC_SR04_1.c **** *******************************************************************************/
 137:Generated_Source\PSoC5/ISR_HC_SR04_1.c **** void ISR_HC_SR04_1_Stop(void)
 138:Generated_Source\PSoC5/ISR_HC_SR04_1.c **** {
 139:Generated_Source\PSoC5/ISR_HC_SR04_1.c ****     /* Disable this interrupt. */
 140:Generated_Source\PSoC5/ISR_HC_SR04_1.c ****     ISR_HC_SR04_1_Disable();
 141:Generated_Source\PSoC5/ISR_HC_SR04_1.c **** 
 142:Generated_Source\PSoC5/ISR_HC_SR04_1.c ****     /* Set the ISR to point to the passive one. */
 143:Generated_Source\PSoC5/ISR_HC_SR04_1.c ****     ISR_HC_SR04_1_SetVector(&IntDefaultHandler);
 144:Generated_Source\PSoC5/ISR_HC_SR04_1.c **** }
ARM GAS  C:\Users\user\AppData\Local\Temp\ccilzRKI.s 			page 4


 145:Generated_Source\PSoC5/ISR_HC_SR04_1.c **** 
 146:Generated_Source\PSoC5/ISR_HC_SR04_1.c **** 
 147:Generated_Source\PSoC5/ISR_HC_SR04_1.c **** /*******************************************************************************
 148:Generated_Source\PSoC5/ISR_HC_SR04_1.c **** * Function Name: ISR_HC_SR04_1_Interrupt
 149:Generated_Source\PSoC5/ISR_HC_SR04_1.c **** ********************************************************************************
 150:Generated_Source\PSoC5/ISR_HC_SR04_1.c **** *
 151:Generated_Source\PSoC5/ISR_HC_SR04_1.c **** * Summary:
 152:Generated_Source\PSoC5/ISR_HC_SR04_1.c **** *   The default Interrupt Service Routine for ISR_HC_SR04_1.
 153:Generated_Source\PSoC5/ISR_HC_SR04_1.c **** *
 154:Generated_Source\PSoC5/ISR_HC_SR04_1.c **** *   Add custom code between the coments to keep the next version of this file
 155:Generated_Source\PSoC5/ISR_HC_SR04_1.c **** *   from over writting your code.
 156:Generated_Source\PSoC5/ISR_HC_SR04_1.c **** *
 157:Generated_Source\PSoC5/ISR_HC_SR04_1.c **** * Parameters:  
 158:Generated_Source\PSoC5/ISR_HC_SR04_1.c **** *
 159:Generated_Source\PSoC5/ISR_HC_SR04_1.c **** * Return:
 160:Generated_Source\PSoC5/ISR_HC_SR04_1.c **** *   None
 161:Generated_Source\PSoC5/ISR_HC_SR04_1.c **** *
 162:Generated_Source\PSoC5/ISR_HC_SR04_1.c **** *******************************************************************************/
 163:Generated_Source\PSoC5/ISR_HC_SR04_1.c **** CY_ISR(ISR_HC_SR04_1_Interrupt)
 164:Generated_Source\PSoC5/ISR_HC_SR04_1.c **** {
 165:Generated_Source\PSoC5/ISR_HC_SR04_1.c ****     #ifdef ISR_HC_SR04_1_INTERRUPT_INTERRUPT_CALLBACK
 166:Generated_Source\PSoC5/ISR_HC_SR04_1.c ****         ISR_HC_SR04_1_Interrupt_InterruptCallback();
 167:Generated_Source\PSoC5/ISR_HC_SR04_1.c ****     #endif /* ISR_HC_SR04_1_INTERRUPT_INTERRUPT_CALLBACK */ 
 168:Generated_Source\PSoC5/ISR_HC_SR04_1.c **** 
 169:Generated_Source\PSoC5/ISR_HC_SR04_1.c ****     /*  Place your Interrupt code here. */
 170:Generated_Source\PSoC5/ISR_HC_SR04_1.c ****     extern uint8_t HC_SR01_Distance;
 171:Generated_Source\PSoC5/ISR_HC_SR04_1.c ****     HC_SR01_Distance = HC_SR04_1_REG_Read();
 172:Generated_Source\PSoC5/ISR_HC_SR04_1.c ****     ISR_HC_SR04_1_ClearPending();
 173:Generated_Source\PSoC5/ISR_HC_SR04_1.c ****     User_LED_Write(!User_LED_Read());
 174:Generated_Source\PSoC5/ISR_HC_SR04_1.c ****     /* `#START ISR_HC_SR04_1_Interrupt` */
 175:Generated_Source\PSoC5/ISR_HC_SR04_1.c **** 
 176:Generated_Source\PSoC5/ISR_HC_SR04_1.c ****     /* `#END` */
 177:Generated_Source\PSoC5/ISR_HC_SR04_1.c **** }
 178:Generated_Source\PSoC5/ISR_HC_SR04_1.c **** 
 179:Generated_Source\PSoC5/ISR_HC_SR04_1.c **** 
 180:Generated_Source\PSoC5/ISR_HC_SR04_1.c **** /*******************************************************************************
 181:Generated_Source\PSoC5/ISR_HC_SR04_1.c **** * Function Name: ISR_HC_SR04_1_SetVector
 182:Generated_Source\PSoC5/ISR_HC_SR04_1.c **** ********************************************************************************
 183:Generated_Source\PSoC5/ISR_HC_SR04_1.c **** *
 184:Generated_Source\PSoC5/ISR_HC_SR04_1.c **** * Summary:
 185:Generated_Source\PSoC5/ISR_HC_SR04_1.c **** *   Change the ISR vector for the Interrupt. Note calling ISR_HC_SR04_1_Start
 186:Generated_Source\PSoC5/ISR_HC_SR04_1.c **** *   will override any effect this method would have had. To set the vector 
 187:Generated_Source\PSoC5/ISR_HC_SR04_1.c **** *   before the component has been started use ISR_HC_SR04_1_StartEx instead.
 188:Generated_Source\PSoC5/ISR_HC_SR04_1.c **** * 
 189:Generated_Source\PSoC5/ISR_HC_SR04_1.c **** *   When defining ISR functions, the CY_ISR and CY_ISR_PROTO macros should be 
 190:Generated_Source\PSoC5/ISR_HC_SR04_1.c **** *   used to provide consistent definition across compilers:
 191:Generated_Source\PSoC5/ISR_HC_SR04_1.c **** *
 192:Generated_Source\PSoC5/ISR_HC_SR04_1.c **** *   Function definition example:
 193:Generated_Source\PSoC5/ISR_HC_SR04_1.c **** *   CY_ISR(MyISR)
 194:Generated_Source\PSoC5/ISR_HC_SR04_1.c **** *   {
 195:Generated_Source\PSoC5/ISR_HC_SR04_1.c **** *   }
 196:Generated_Source\PSoC5/ISR_HC_SR04_1.c **** *
 197:Generated_Source\PSoC5/ISR_HC_SR04_1.c **** *   Function prototype example:
 198:Generated_Source\PSoC5/ISR_HC_SR04_1.c **** *     CY_ISR_PROTO(MyISR);
 199:Generated_Source\PSoC5/ISR_HC_SR04_1.c **** *
 200:Generated_Source\PSoC5/ISR_HC_SR04_1.c **** * Parameters:
 201:Generated_Source\PSoC5/ISR_HC_SR04_1.c **** *   address: Address of the ISR to set in the interrupt vector table.
ARM GAS  C:\Users\user\AppData\Local\Temp\ccilzRKI.s 			page 5


 202:Generated_Source\PSoC5/ISR_HC_SR04_1.c **** *
 203:Generated_Source\PSoC5/ISR_HC_SR04_1.c **** * Return:
 204:Generated_Source\PSoC5/ISR_HC_SR04_1.c **** *   None
 205:Generated_Source\PSoC5/ISR_HC_SR04_1.c **** *
 206:Generated_Source\PSoC5/ISR_HC_SR04_1.c **** *******************************************************************************/
 207:Generated_Source\PSoC5/ISR_HC_SR04_1.c **** void ISR_HC_SR04_1_SetVector(cyisraddress address)
 208:Generated_Source\PSoC5/ISR_HC_SR04_1.c **** {
  28              		.loc 1 208 0
  29              		.cfi_startproc
  30              		@ args = 0, pretend = 0, frame = 0
  31              		@ frame_needed = 0, uses_anonymous_args = 0
  32              		@ link register save eliminated.
  33              	.LVL0:
 209:Generated_Source\PSoC5/ISR_HC_SR04_1.c ****     cyisraddress * ramVectorTable;
 210:Generated_Source\PSoC5/ISR_HC_SR04_1.c **** 
 211:Generated_Source\PSoC5/ISR_HC_SR04_1.c ****     ramVectorTable = (cyisraddress *) *CYINT_VECT_TABLE;
  34              		.loc 1 211 0
  35 0000 014B     		ldr	r3, .L2
  36 0002 1B68     		ldr	r3, [r3]
  37              	.LVL1:
 212:Generated_Source\PSoC5/ISR_HC_SR04_1.c **** 
 213:Generated_Source\PSoC5/ISR_HC_SR04_1.c ****     ramVectorTable[CYINT_IRQ_BASE + (uint32)ISR_HC_SR04_1__INTC_NUMBER] = address;
  38              		.loc 1 213 0
  39 0004 1867     		str	r0, [r3, #112]
  40 0006 7047     		bx	lr
  41              	.L3:
  42              		.align	2
  43              	.L2:
  44 0008 08ED00E0 		.word	-536810232
  45              		.cfi_endproc
  46              	.LFE4:
  47              		.size	ISR_HC_SR04_1_SetVector, .-ISR_HC_SR04_1_SetVector
  48              		.section	.text.ISR_HC_SR04_1_GetVector,"ax",%progbits
  49              		.align	2
  50              		.global	ISR_HC_SR04_1_GetVector
  51              		.thumb
  52              		.thumb_func
  53              		.type	ISR_HC_SR04_1_GetVector, %function
  54              	ISR_HC_SR04_1_GetVector:
  55              	.LFB5:
 214:Generated_Source\PSoC5/ISR_HC_SR04_1.c **** }
 215:Generated_Source\PSoC5/ISR_HC_SR04_1.c **** 
 216:Generated_Source\PSoC5/ISR_HC_SR04_1.c **** 
 217:Generated_Source\PSoC5/ISR_HC_SR04_1.c **** /*******************************************************************************
 218:Generated_Source\PSoC5/ISR_HC_SR04_1.c **** * Function Name: ISR_HC_SR04_1_GetVector
 219:Generated_Source\PSoC5/ISR_HC_SR04_1.c **** ********************************************************************************
 220:Generated_Source\PSoC5/ISR_HC_SR04_1.c **** *
 221:Generated_Source\PSoC5/ISR_HC_SR04_1.c **** * Summary:
 222:Generated_Source\PSoC5/ISR_HC_SR04_1.c **** *   Gets the "address" of the current ISR vector for the Interrupt.
 223:Generated_Source\PSoC5/ISR_HC_SR04_1.c **** *
 224:Generated_Source\PSoC5/ISR_HC_SR04_1.c **** * Parameters:
 225:Generated_Source\PSoC5/ISR_HC_SR04_1.c **** *   None
 226:Generated_Source\PSoC5/ISR_HC_SR04_1.c **** *
 227:Generated_Source\PSoC5/ISR_HC_SR04_1.c **** * Return:
 228:Generated_Source\PSoC5/ISR_HC_SR04_1.c **** *   Address of the ISR in the interrupt vector table.
 229:Generated_Source\PSoC5/ISR_HC_SR04_1.c **** *
 230:Generated_Source\PSoC5/ISR_HC_SR04_1.c **** *******************************************************************************/
ARM GAS  C:\Users\user\AppData\Local\Temp\ccilzRKI.s 			page 6


 231:Generated_Source\PSoC5/ISR_HC_SR04_1.c **** cyisraddress ISR_HC_SR04_1_GetVector(void)
 232:Generated_Source\PSoC5/ISR_HC_SR04_1.c **** {
  56              		.loc 1 232 0
  57              		.cfi_startproc
  58              		@ args = 0, pretend = 0, frame = 0
  59              		@ frame_needed = 0, uses_anonymous_args = 0
  60              		@ link register save eliminated.
 233:Generated_Source\PSoC5/ISR_HC_SR04_1.c ****     cyisraddress * ramVectorTable;
 234:Generated_Source\PSoC5/ISR_HC_SR04_1.c **** 
 235:Generated_Source\PSoC5/ISR_HC_SR04_1.c ****     ramVectorTable = (cyisraddress *) *CYINT_VECT_TABLE;
  61              		.loc 1 235 0
  62 0000 014B     		ldr	r3, .L5
  63 0002 1B68     		ldr	r3, [r3]
  64              	.LVL2:
 236:Generated_Source\PSoC5/ISR_HC_SR04_1.c **** 
 237:Generated_Source\PSoC5/ISR_HC_SR04_1.c ****     return ramVectorTable[CYINT_IRQ_BASE + (uint32)ISR_HC_SR04_1__INTC_NUMBER];
 238:Generated_Source\PSoC5/ISR_HC_SR04_1.c **** }
  65              		.loc 1 238 0
  66 0004 186F     		ldr	r0, [r3, #112]
  67 0006 7047     		bx	lr
  68              	.L6:
  69              		.align	2
  70              	.L5:
  71 0008 08ED00E0 		.word	-536810232
  72              		.cfi_endproc
  73              	.LFE5:
  74              		.size	ISR_HC_SR04_1_GetVector, .-ISR_HC_SR04_1_GetVector
  75              		.section	.text.ISR_HC_SR04_1_SetPriority,"ax",%progbits
  76              		.align	2
  77              		.global	ISR_HC_SR04_1_SetPriority
  78              		.thumb
  79              		.thumb_func
  80              		.type	ISR_HC_SR04_1_SetPriority, %function
  81              	ISR_HC_SR04_1_SetPriority:
  82              	.LFB6:
 239:Generated_Source\PSoC5/ISR_HC_SR04_1.c **** 
 240:Generated_Source\PSoC5/ISR_HC_SR04_1.c **** 
 241:Generated_Source\PSoC5/ISR_HC_SR04_1.c **** /*******************************************************************************
 242:Generated_Source\PSoC5/ISR_HC_SR04_1.c **** * Function Name: ISR_HC_SR04_1_SetPriority
 243:Generated_Source\PSoC5/ISR_HC_SR04_1.c **** ********************************************************************************
 244:Generated_Source\PSoC5/ISR_HC_SR04_1.c **** *
 245:Generated_Source\PSoC5/ISR_HC_SR04_1.c **** * Summary:
 246:Generated_Source\PSoC5/ISR_HC_SR04_1.c **** *   Sets the Priority of the Interrupt. 
 247:Generated_Source\PSoC5/ISR_HC_SR04_1.c **** *
 248:Generated_Source\PSoC5/ISR_HC_SR04_1.c **** *   Note calling ISR_HC_SR04_1_Start or ISR_HC_SR04_1_StartEx will 
 249:Generated_Source\PSoC5/ISR_HC_SR04_1.c **** *   override any effect this API would have had. This API should only be called
 250:Generated_Source\PSoC5/ISR_HC_SR04_1.c **** *   after ISR_HC_SR04_1_Start or ISR_HC_SR04_1_StartEx has been called. 
 251:Generated_Source\PSoC5/ISR_HC_SR04_1.c **** *   To set the initial priority for the component, use the Design-Wide Resources
 252:Generated_Source\PSoC5/ISR_HC_SR04_1.c **** *   Interrupt Editor.
 253:Generated_Source\PSoC5/ISR_HC_SR04_1.c **** *
 254:Generated_Source\PSoC5/ISR_HC_SR04_1.c **** *   Note This API has no effect on Non-maskable interrupt NMI).
 255:Generated_Source\PSoC5/ISR_HC_SR04_1.c **** *
 256:Generated_Source\PSoC5/ISR_HC_SR04_1.c **** * Parameters:
 257:Generated_Source\PSoC5/ISR_HC_SR04_1.c **** *   priority: Priority of the interrupt, 0 being the highest priority
 258:Generated_Source\PSoC5/ISR_HC_SR04_1.c **** *             PSoC 3 and PSoC 5LP: Priority is from 0 to 7.
 259:Generated_Source\PSoC5/ISR_HC_SR04_1.c **** *             PSoC 4: Priority is from 0 to 3.
 260:Generated_Source\PSoC5/ISR_HC_SR04_1.c **** *
ARM GAS  C:\Users\user\AppData\Local\Temp\ccilzRKI.s 			page 7


 261:Generated_Source\PSoC5/ISR_HC_SR04_1.c **** * Return:
 262:Generated_Source\PSoC5/ISR_HC_SR04_1.c **** *   None
 263:Generated_Source\PSoC5/ISR_HC_SR04_1.c **** *
 264:Generated_Source\PSoC5/ISR_HC_SR04_1.c **** *******************************************************************************/
 265:Generated_Source\PSoC5/ISR_HC_SR04_1.c **** void ISR_HC_SR04_1_SetPriority(uint8 priority)
 266:Generated_Source\PSoC5/ISR_HC_SR04_1.c **** {
  83              		.loc 1 266 0
  84              		.cfi_startproc
  85              		@ args = 0, pretend = 0, frame = 0
  86              		@ frame_needed = 0, uses_anonymous_args = 0
  87              		@ link register save eliminated.
  88              	.LVL3:
 267:Generated_Source\PSoC5/ISR_HC_SR04_1.c ****     *ISR_HC_SR04_1_INTC_PRIOR = priority << 5;
  89              		.loc 1 267 0
  90 0000 4001     		lsls	r0, r0, #5
  91              	.LVL4:
  92 0002 C0B2     		uxtb	r0, r0
  93 0004 014B     		ldr	r3, .L8
  94 0006 1870     		strb	r0, [r3]
  95 0008 7047     		bx	lr
  96              	.L9:
  97 000a 00BF     		.align	2
  98              	.L8:
  99 000c 0CE400E0 		.word	-536812532
 100              		.cfi_endproc
 101              	.LFE6:
 102              		.size	ISR_HC_SR04_1_SetPriority, .-ISR_HC_SR04_1_SetPriority
 103              		.section	.text.ISR_HC_SR04_1_GetPriority,"ax",%progbits
 104              		.align	2
 105              		.global	ISR_HC_SR04_1_GetPriority
 106              		.thumb
 107              		.thumb_func
 108              		.type	ISR_HC_SR04_1_GetPriority, %function
 109              	ISR_HC_SR04_1_GetPriority:
 110              	.LFB7:
 268:Generated_Source\PSoC5/ISR_HC_SR04_1.c **** }
 269:Generated_Source\PSoC5/ISR_HC_SR04_1.c **** 
 270:Generated_Source\PSoC5/ISR_HC_SR04_1.c **** 
 271:Generated_Source\PSoC5/ISR_HC_SR04_1.c **** /*******************************************************************************
 272:Generated_Source\PSoC5/ISR_HC_SR04_1.c **** * Function Name: ISR_HC_SR04_1_GetPriority
 273:Generated_Source\PSoC5/ISR_HC_SR04_1.c **** ********************************************************************************
 274:Generated_Source\PSoC5/ISR_HC_SR04_1.c **** *
 275:Generated_Source\PSoC5/ISR_HC_SR04_1.c **** * Summary:
 276:Generated_Source\PSoC5/ISR_HC_SR04_1.c **** *   Gets the Priority of the Interrupt.
 277:Generated_Source\PSoC5/ISR_HC_SR04_1.c **** *
 278:Generated_Source\PSoC5/ISR_HC_SR04_1.c **** * Parameters:
 279:Generated_Source\PSoC5/ISR_HC_SR04_1.c **** *   None
 280:Generated_Source\PSoC5/ISR_HC_SR04_1.c **** *
 281:Generated_Source\PSoC5/ISR_HC_SR04_1.c **** * Return:
 282:Generated_Source\PSoC5/ISR_HC_SR04_1.c **** *   Priority of the interrupt, 0 being the highest priority
 283:Generated_Source\PSoC5/ISR_HC_SR04_1.c **** *    PSoC 3 and PSoC 5LP: Priority is from 0 to 7.
 284:Generated_Source\PSoC5/ISR_HC_SR04_1.c **** *    PSoC 4: Priority is from 0 to 3.
 285:Generated_Source\PSoC5/ISR_HC_SR04_1.c **** *
 286:Generated_Source\PSoC5/ISR_HC_SR04_1.c **** *******************************************************************************/
 287:Generated_Source\PSoC5/ISR_HC_SR04_1.c **** uint8 ISR_HC_SR04_1_GetPriority(void)
 288:Generated_Source\PSoC5/ISR_HC_SR04_1.c **** {
 111              		.loc 1 288 0
ARM GAS  C:\Users\user\AppData\Local\Temp\ccilzRKI.s 			page 8


 112              		.cfi_startproc
 113              		@ args = 0, pretend = 0, frame = 0
 114              		@ frame_needed = 0, uses_anonymous_args = 0
 115              		@ link register save eliminated.
 289:Generated_Source\PSoC5/ISR_HC_SR04_1.c ****     uint8 priority;
 290:Generated_Source\PSoC5/ISR_HC_SR04_1.c **** 
 291:Generated_Source\PSoC5/ISR_HC_SR04_1.c **** 
 292:Generated_Source\PSoC5/ISR_HC_SR04_1.c ****     priority = *ISR_HC_SR04_1_INTC_PRIOR >> 5;
 116              		.loc 1 292 0
 117 0000 014B     		ldr	r3, .L11
 118 0002 1878     		ldrb	r0, [r3]	@ zero_extendqisi2
 119              	.LVL5:
 293:Generated_Source\PSoC5/ISR_HC_SR04_1.c **** 
 294:Generated_Source\PSoC5/ISR_HC_SR04_1.c ****     return priority;
 295:Generated_Source\PSoC5/ISR_HC_SR04_1.c **** }
 120              		.loc 1 295 0
 121 0004 4009     		lsrs	r0, r0, #5
 122              	.LVL6:
 123 0006 7047     		bx	lr
 124              	.L12:
 125              		.align	2
 126              	.L11:
 127 0008 0CE400E0 		.word	-536812532
 128              		.cfi_endproc
 129              	.LFE7:
 130              		.size	ISR_HC_SR04_1_GetPriority, .-ISR_HC_SR04_1_GetPriority
 131              		.section	.text.ISR_HC_SR04_1_Enable,"ax",%progbits
 132              		.align	2
 133              		.global	ISR_HC_SR04_1_Enable
 134              		.thumb
 135              		.thumb_func
 136              		.type	ISR_HC_SR04_1_Enable, %function
 137              	ISR_HC_SR04_1_Enable:
 138              	.LFB8:
 296:Generated_Source\PSoC5/ISR_HC_SR04_1.c **** 
 297:Generated_Source\PSoC5/ISR_HC_SR04_1.c **** 
 298:Generated_Source\PSoC5/ISR_HC_SR04_1.c **** /*******************************************************************************
 299:Generated_Source\PSoC5/ISR_HC_SR04_1.c **** * Function Name: ISR_HC_SR04_1_Enable
 300:Generated_Source\PSoC5/ISR_HC_SR04_1.c **** ********************************************************************************
 301:Generated_Source\PSoC5/ISR_HC_SR04_1.c **** *
 302:Generated_Source\PSoC5/ISR_HC_SR04_1.c **** * Summary:
 303:Generated_Source\PSoC5/ISR_HC_SR04_1.c **** *   Enables the interrupt to the interrupt controller. Do not call this function
 304:Generated_Source\PSoC5/ISR_HC_SR04_1.c **** *   unless ISR_Start() has been called or the functionality of the ISR_Start() 
 305:Generated_Source\PSoC5/ISR_HC_SR04_1.c **** *   function, which sets the vector and the priority, has been called.
 306:Generated_Source\PSoC5/ISR_HC_SR04_1.c **** *
 307:Generated_Source\PSoC5/ISR_HC_SR04_1.c **** * Parameters:
 308:Generated_Source\PSoC5/ISR_HC_SR04_1.c **** *   None
 309:Generated_Source\PSoC5/ISR_HC_SR04_1.c **** *
 310:Generated_Source\PSoC5/ISR_HC_SR04_1.c **** * Return:
 311:Generated_Source\PSoC5/ISR_HC_SR04_1.c **** *   None
 312:Generated_Source\PSoC5/ISR_HC_SR04_1.c **** *
 313:Generated_Source\PSoC5/ISR_HC_SR04_1.c **** *******************************************************************************/
 314:Generated_Source\PSoC5/ISR_HC_SR04_1.c **** void ISR_HC_SR04_1_Enable(void)
 315:Generated_Source\PSoC5/ISR_HC_SR04_1.c **** {
 139              		.loc 1 315 0
 140              		.cfi_startproc
 141              		@ args = 0, pretend = 0, frame = 0
ARM GAS  C:\Users\user\AppData\Local\Temp\ccilzRKI.s 			page 9


 142              		@ frame_needed = 0, uses_anonymous_args = 0
 143              		@ link register save eliminated.
 316:Generated_Source\PSoC5/ISR_HC_SR04_1.c ****     /* Enable the general interrupt. */
 317:Generated_Source\PSoC5/ISR_HC_SR04_1.c ****     *ISR_HC_SR04_1_INTC_SET_EN = ISR_HC_SR04_1__INTC_MASK;
 144              		.loc 1 317 0
 145 0000 4FF48052 		mov	r2, #4096
 146 0004 014B     		ldr	r3, .L14
 147 0006 1A60     		str	r2, [r3]
 148 0008 7047     		bx	lr
 149              	.L15:
 150 000a 00BF     		.align	2
 151              	.L14:
 152 000c 00E100E0 		.word	-536813312
 153              		.cfi_endproc
 154              	.LFE8:
 155              		.size	ISR_HC_SR04_1_Enable, .-ISR_HC_SR04_1_Enable
 156              		.section	.text.ISR_HC_SR04_1_GetState,"ax",%progbits
 157              		.align	2
 158              		.global	ISR_HC_SR04_1_GetState
 159              		.thumb
 160              		.thumb_func
 161              		.type	ISR_HC_SR04_1_GetState, %function
 162              	ISR_HC_SR04_1_GetState:
 163              	.LFB9:
 318:Generated_Source\PSoC5/ISR_HC_SR04_1.c **** }
 319:Generated_Source\PSoC5/ISR_HC_SR04_1.c **** 
 320:Generated_Source\PSoC5/ISR_HC_SR04_1.c **** 
 321:Generated_Source\PSoC5/ISR_HC_SR04_1.c **** /*******************************************************************************
 322:Generated_Source\PSoC5/ISR_HC_SR04_1.c **** * Function Name: ISR_HC_SR04_1_GetState
 323:Generated_Source\PSoC5/ISR_HC_SR04_1.c **** ********************************************************************************
 324:Generated_Source\PSoC5/ISR_HC_SR04_1.c **** *
 325:Generated_Source\PSoC5/ISR_HC_SR04_1.c **** * Summary:
 326:Generated_Source\PSoC5/ISR_HC_SR04_1.c **** *   Gets the state (enabled, disabled) of the Interrupt.
 327:Generated_Source\PSoC5/ISR_HC_SR04_1.c **** *
 328:Generated_Source\PSoC5/ISR_HC_SR04_1.c **** * Parameters:
 329:Generated_Source\PSoC5/ISR_HC_SR04_1.c **** *   None
 330:Generated_Source\PSoC5/ISR_HC_SR04_1.c **** *
 331:Generated_Source\PSoC5/ISR_HC_SR04_1.c **** * Return:
 332:Generated_Source\PSoC5/ISR_HC_SR04_1.c **** *   1 if enabled, 0 if disabled.
 333:Generated_Source\PSoC5/ISR_HC_SR04_1.c **** *
 334:Generated_Source\PSoC5/ISR_HC_SR04_1.c **** *******************************************************************************/
 335:Generated_Source\PSoC5/ISR_HC_SR04_1.c **** uint8 ISR_HC_SR04_1_GetState(void)
 336:Generated_Source\PSoC5/ISR_HC_SR04_1.c **** {
 164              		.loc 1 336 0
 165              		.cfi_startproc
 166              		@ args = 0, pretend = 0, frame = 0
 167              		@ frame_needed = 0, uses_anonymous_args = 0
 168              		@ link register save eliminated.
 337:Generated_Source\PSoC5/ISR_HC_SR04_1.c ****     /* Get the state of the general interrupt. */
 338:Generated_Source\PSoC5/ISR_HC_SR04_1.c ****     return ((*ISR_HC_SR04_1_INTC_SET_EN & (uint32)ISR_HC_SR04_1__INTC_MASK) != 0u) ? 1u:0u;
 169              		.loc 1 338 0
 170 0000 044B     		ldr	r3, .L19
 171 0002 1B68     		ldr	r3, [r3]
 172 0004 13F4805F 		tst	r3, #4096
 173 0008 01D0     		beq	.L18
 174 000a 0120     		movs	r0, #1
 175 000c 7047     		bx	lr
ARM GAS  C:\Users\user\AppData\Local\Temp\ccilzRKI.s 			page 10


 176              	.L18:
 177 000e 0020     		movs	r0, #0
 339:Generated_Source\PSoC5/ISR_HC_SR04_1.c **** }
 178              		.loc 1 339 0
 179 0010 7047     		bx	lr
 180              	.L20:
 181 0012 00BF     		.align	2
 182              	.L19:
 183 0014 00E100E0 		.word	-536813312
 184              		.cfi_endproc
 185              	.LFE9:
 186              		.size	ISR_HC_SR04_1_GetState, .-ISR_HC_SR04_1_GetState
 187              		.section	.text.ISR_HC_SR04_1_Disable,"ax",%progbits
 188              		.align	2
 189              		.global	ISR_HC_SR04_1_Disable
 190              		.thumb
 191              		.thumb_func
 192              		.type	ISR_HC_SR04_1_Disable, %function
 193              	ISR_HC_SR04_1_Disable:
 194              	.LFB10:
 340:Generated_Source\PSoC5/ISR_HC_SR04_1.c **** 
 341:Generated_Source\PSoC5/ISR_HC_SR04_1.c **** 
 342:Generated_Source\PSoC5/ISR_HC_SR04_1.c **** /*******************************************************************************
 343:Generated_Source\PSoC5/ISR_HC_SR04_1.c **** * Function Name: ISR_HC_SR04_1_Disable
 344:Generated_Source\PSoC5/ISR_HC_SR04_1.c **** ********************************************************************************
 345:Generated_Source\PSoC5/ISR_HC_SR04_1.c **** *
 346:Generated_Source\PSoC5/ISR_HC_SR04_1.c **** * Summary:
 347:Generated_Source\PSoC5/ISR_HC_SR04_1.c **** *   Disables the Interrupt in the interrupt controller.
 348:Generated_Source\PSoC5/ISR_HC_SR04_1.c **** *
 349:Generated_Source\PSoC5/ISR_HC_SR04_1.c **** * Parameters:
 350:Generated_Source\PSoC5/ISR_HC_SR04_1.c **** *   None
 351:Generated_Source\PSoC5/ISR_HC_SR04_1.c **** *
 352:Generated_Source\PSoC5/ISR_HC_SR04_1.c **** * Return:
 353:Generated_Source\PSoC5/ISR_HC_SR04_1.c **** *   None
 354:Generated_Source\PSoC5/ISR_HC_SR04_1.c **** *
 355:Generated_Source\PSoC5/ISR_HC_SR04_1.c **** *******************************************************************************/
 356:Generated_Source\PSoC5/ISR_HC_SR04_1.c **** void ISR_HC_SR04_1_Disable(void)
 357:Generated_Source\PSoC5/ISR_HC_SR04_1.c **** {
 195              		.loc 1 357 0
 196              		.cfi_startproc
 197              		@ args = 0, pretend = 0, frame = 0
 198              		@ frame_needed = 0, uses_anonymous_args = 0
 199              		@ link register save eliminated.
 358:Generated_Source\PSoC5/ISR_HC_SR04_1.c ****     /* Disable the general interrupt. */
 359:Generated_Source\PSoC5/ISR_HC_SR04_1.c ****     *ISR_HC_SR04_1_INTC_CLR_EN = ISR_HC_SR04_1__INTC_MASK;
 200              		.loc 1 359 0
 201 0000 4FF48052 		mov	r2, #4096
 202 0004 014B     		ldr	r3, .L22
 203 0006 1A60     		str	r2, [r3]
 204 0008 7047     		bx	lr
 205              	.L23:
 206 000a 00BF     		.align	2
 207              	.L22:
 208 000c 80E100E0 		.word	-536813184
 209              		.cfi_endproc
 210              	.LFE10:
 211              		.size	ISR_HC_SR04_1_Disable, .-ISR_HC_SR04_1_Disable
ARM GAS  C:\Users\user\AppData\Local\Temp\ccilzRKI.s 			page 11


 212              		.section	.text.ISR_HC_SR04_1_Start,"ax",%progbits
 213              		.align	2
 214              		.global	ISR_HC_SR04_1_Start
 215              		.thumb
 216              		.thumb_func
 217              		.type	ISR_HC_SR04_1_Start, %function
 218              	ISR_HC_SR04_1_Start:
 219              	.LFB0:
  65:Generated_Source\PSoC5/ISR_HC_SR04_1.c ****     /* For all we know the interrupt is active. */
 220              		.loc 1 65 0
 221              		.cfi_startproc
 222              		@ args = 0, pretend = 0, frame = 0
 223              		@ frame_needed = 0, uses_anonymous_args = 0
 224 0000 08B5     		push	{r3, lr}
 225              		.cfi_def_cfa_offset 8
 226              		.cfi_offset 3, -8
 227              		.cfi_offset 14, -4
  67:Generated_Source\PSoC5/ISR_HC_SR04_1.c **** 
 228              		.loc 1 67 0
 229 0002 FFF7FEFF 		bl	ISR_HC_SR04_1_Disable
 230              	.LVL7:
  70:Generated_Source\PSoC5/ISR_HC_SR04_1.c **** 
 231              		.loc 1 70 0
 232 0006 0448     		ldr	r0, .L26
 233 0008 FFF7FEFF 		bl	ISR_HC_SR04_1_SetVector
 234              	.LVL8:
  73:Generated_Source\PSoC5/ISR_HC_SR04_1.c **** 
 235              		.loc 1 73 0
 236 000c 0720     		movs	r0, #7
 237 000e FFF7FEFF 		bl	ISR_HC_SR04_1_SetPriority
 238              	.LVL9:
  76:Generated_Source\PSoC5/ISR_HC_SR04_1.c **** }
 239              		.loc 1 76 0
 240 0012 FFF7FEFF 		bl	ISR_HC_SR04_1_Enable
 241              	.LVL10:
 242 0016 08BD     		pop	{r3, pc}
 243              	.L27:
 244              		.align	2
 245              	.L26:
 246 0018 00000000 		.word	ISR_HC_SR04_1_Interrupt
 247              		.cfi_endproc
 248              	.LFE0:
 249              		.size	ISR_HC_SR04_1_Start, .-ISR_HC_SR04_1_Start
 250              		.section	.text.ISR_HC_SR04_1_StartEx,"ax",%progbits
 251              		.align	2
 252              		.global	ISR_HC_SR04_1_StartEx
 253              		.thumb
 254              		.thumb_func
 255              		.type	ISR_HC_SR04_1_StartEx, %function
 256              	ISR_HC_SR04_1_StartEx:
 257              	.LFB1:
 108:Generated_Source\PSoC5/ISR_HC_SR04_1.c ****     /* For all we know the interrupt is active. */
 258              		.loc 1 108 0
 259              		.cfi_startproc
 260              		@ args = 0, pretend = 0, frame = 0
 261              		@ frame_needed = 0, uses_anonymous_args = 0
 262              	.LVL11:
ARM GAS  C:\Users\user\AppData\Local\Temp\ccilzRKI.s 			page 12


 263 0000 10B5     		push	{r4, lr}
 264              		.cfi_def_cfa_offset 8
 265              		.cfi_offset 4, -8
 266              		.cfi_offset 14, -4
 267 0002 0446     		mov	r4, r0
 110:Generated_Source\PSoC5/ISR_HC_SR04_1.c **** 
 268              		.loc 1 110 0
 269 0004 FFF7FEFF 		bl	ISR_HC_SR04_1_Disable
 270              	.LVL12:
 113:Generated_Source\PSoC5/ISR_HC_SR04_1.c **** 
 271              		.loc 1 113 0
 272 0008 2046     		mov	r0, r4
 273 000a FFF7FEFF 		bl	ISR_HC_SR04_1_SetVector
 274              	.LVL13:
 116:Generated_Source\PSoC5/ISR_HC_SR04_1.c **** 
 275              		.loc 1 116 0
 276 000e 0720     		movs	r0, #7
 277 0010 FFF7FEFF 		bl	ISR_HC_SR04_1_SetPriority
 278              	.LVL14:
 119:Generated_Source\PSoC5/ISR_HC_SR04_1.c **** }
 279              		.loc 1 119 0
 280 0014 FFF7FEFF 		bl	ISR_HC_SR04_1_Enable
 281              	.LVL15:
 282 0018 10BD     		pop	{r4, pc}
 283              		.cfi_endproc
 284              	.LFE1:
 285              		.size	ISR_HC_SR04_1_StartEx, .-ISR_HC_SR04_1_StartEx
 286 001a 00BF     		.section	.text.ISR_HC_SR04_1_Stop,"ax",%progbits
 287              		.align	2
 288              		.global	ISR_HC_SR04_1_Stop
 289              		.thumb
 290              		.thumb_func
 291              		.type	ISR_HC_SR04_1_Stop, %function
 292              	ISR_HC_SR04_1_Stop:
 293              	.LFB2:
 138:Generated_Source\PSoC5/ISR_HC_SR04_1.c ****     /* Disable this interrupt. */
 294              		.loc 1 138 0
 295              		.cfi_startproc
 296              		@ args = 0, pretend = 0, frame = 0
 297              		@ frame_needed = 0, uses_anonymous_args = 0
 298 0000 08B5     		push	{r3, lr}
 299              		.cfi_def_cfa_offset 8
 300              		.cfi_offset 3, -8
 301              		.cfi_offset 14, -4
 140:Generated_Source\PSoC5/ISR_HC_SR04_1.c **** 
 302              		.loc 1 140 0
 303 0002 FFF7FEFF 		bl	ISR_HC_SR04_1_Disable
 304              	.LVL16:
 143:Generated_Source\PSoC5/ISR_HC_SR04_1.c **** }
 305              		.loc 1 143 0
 306 0006 0248     		ldr	r0, .L32
 307 0008 FFF7FEFF 		bl	ISR_HC_SR04_1_SetVector
 308              	.LVL17:
 309 000c 08BD     		pop	{r3, pc}
 310              	.L33:
 311 000e 00BF     		.align	2
 312              	.L32:
ARM GAS  C:\Users\user\AppData\Local\Temp\ccilzRKI.s 			page 13


 313 0010 00000000 		.word	IntDefaultHandler
 314              		.cfi_endproc
 315              	.LFE2:
 316              		.size	ISR_HC_SR04_1_Stop, .-ISR_HC_SR04_1_Stop
 317              		.section	.text.ISR_HC_SR04_1_SetPending,"ax",%progbits
 318              		.align	2
 319              		.global	ISR_HC_SR04_1_SetPending
 320              		.thumb
 321              		.thumb_func
 322              		.type	ISR_HC_SR04_1_SetPending, %function
 323              	ISR_HC_SR04_1_SetPending:
 324              	.LFB11:
 360:Generated_Source\PSoC5/ISR_HC_SR04_1.c **** }
 361:Generated_Source\PSoC5/ISR_HC_SR04_1.c **** 
 362:Generated_Source\PSoC5/ISR_HC_SR04_1.c **** 
 363:Generated_Source\PSoC5/ISR_HC_SR04_1.c **** /*******************************************************************************
 364:Generated_Source\PSoC5/ISR_HC_SR04_1.c **** * Function Name: ISR_HC_SR04_1_SetPending
 365:Generated_Source\PSoC5/ISR_HC_SR04_1.c **** ********************************************************************************
 366:Generated_Source\PSoC5/ISR_HC_SR04_1.c **** *
 367:Generated_Source\PSoC5/ISR_HC_SR04_1.c **** * Summary:
 368:Generated_Source\PSoC5/ISR_HC_SR04_1.c **** *   Causes the Interrupt to enter the pending state, a software method of
 369:Generated_Source\PSoC5/ISR_HC_SR04_1.c **** *   generating the interrupt.
 370:Generated_Source\PSoC5/ISR_HC_SR04_1.c **** *
 371:Generated_Source\PSoC5/ISR_HC_SR04_1.c **** * Parameters:
 372:Generated_Source\PSoC5/ISR_HC_SR04_1.c **** *   None
 373:Generated_Source\PSoC5/ISR_HC_SR04_1.c **** *
 374:Generated_Source\PSoC5/ISR_HC_SR04_1.c **** * Return:
 375:Generated_Source\PSoC5/ISR_HC_SR04_1.c **** *   None
 376:Generated_Source\PSoC5/ISR_HC_SR04_1.c **** *
 377:Generated_Source\PSoC5/ISR_HC_SR04_1.c **** * Side Effects:
 378:Generated_Source\PSoC5/ISR_HC_SR04_1.c **** *   If interrupts are enabled and the interrupt is set up properly, the ISR is
 379:Generated_Source\PSoC5/ISR_HC_SR04_1.c **** *   entered (depending on the priority of this interrupt and other pending 
 380:Generated_Source\PSoC5/ISR_HC_SR04_1.c **** *   interrupts).
 381:Generated_Source\PSoC5/ISR_HC_SR04_1.c **** *
 382:Generated_Source\PSoC5/ISR_HC_SR04_1.c **** *******************************************************************************/
 383:Generated_Source\PSoC5/ISR_HC_SR04_1.c **** void ISR_HC_SR04_1_SetPending(void)
 384:Generated_Source\PSoC5/ISR_HC_SR04_1.c **** {
 325              		.loc 1 384 0
 326              		.cfi_startproc
 327              		@ args = 0, pretend = 0, frame = 0
 328              		@ frame_needed = 0, uses_anonymous_args = 0
 329              		@ link register save eliminated.
 385:Generated_Source\PSoC5/ISR_HC_SR04_1.c ****     *ISR_HC_SR04_1_INTC_SET_PD = ISR_HC_SR04_1__INTC_MASK;
 330              		.loc 1 385 0
 331 0000 4FF48052 		mov	r2, #4096
 332 0004 014B     		ldr	r3, .L35
 333 0006 1A60     		str	r2, [r3]
 334 0008 7047     		bx	lr
 335              	.L36:
 336 000a 00BF     		.align	2
 337              	.L35:
 338 000c 00E200E0 		.word	-536813056
 339              		.cfi_endproc
 340              	.LFE11:
 341              		.size	ISR_HC_SR04_1_SetPending, .-ISR_HC_SR04_1_SetPending
 342              		.section	.text.ISR_HC_SR04_1_ClearPending,"ax",%progbits
 343              		.align	2
ARM GAS  C:\Users\user\AppData\Local\Temp\ccilzRKI.s 			page 14


 344              		.global	ISR_HC_SR04_1_ClearPending
 345              		.thumb
 346              		.thumb_func
 347              		.type	ISR_HC_SR04_1_ClearPending, %function
 348              	ISR_HC_SR04_1_ClearPending:
 349              	.LFB12:
 386:Generated_Source\PSoC5/ISR_HC_SR04_1.c **** }
 387:Generated_Source\PSoC5/ISR_HC_SR04_1.c **** 
 388:Generated_Source\PSoC5/ISR_HC_SR04_1.c **** 
 389:Generated_Source\PSoC5/ISR_HC_SR04_1.c **** /*******************************************************************************
 390:Generated_Source\PSoC5/ISR_HC_SR04_1.c **** * Function Name: ISR_HC_SR04_1_ClearPending
 391:Generated_Source\PSoC5/ISR_HC_SR04_1.c **** ********************************************************************************
 392:Generated_Source\PSoC5/ISR_HC_SR04_1.c **** *
 393:Generated_Source\PSoC5/ISR_HC_SR04_1.c **** * Summary:
 394:Generated_Source\PSoC5/ISR_HC_SR04_1.c **** *   Clears a pending interrupt in the interrupt controller.
 395:Generated_Source\PSoC5/ISR_HC_SR04_1.c **** *
 396:Generated_Source\PSoC5/ISR_HC_SR04_1.c **** *   Note Some interrupt sources are clear-on-read and require the block 
 397:Generated_Source\PSoC5/ISR_HC_SR04_1.c **** *   interrupt/status register to be read/cleared with the appropriate block API 
 398:Generated_Source\PSoC5/ISR_HC_SR04_1.c **** *   (GPIO, UART, and so on). Otherwise the ISR will continue to remain in 
 399:Generated_Source\PSoC5/ISR_HC_SR04_1.c **** *   pending state even though the interrupt itself is cleared using this API.
 400:Generated_Source\PSoC5/ISR_HC_SR04_1.c **** *
 401:Generated_Source\PSoC5/ISR_HC_SR04_1.c **** * Parameters:
 402:Generated_Source\PSoC5/ISR_HC_SR04_1.c **** *   None
 403:Generated_Source\PSoC5/ISR_HC_SR04_1.c **** *
 404:Generated_Source\PSoC5/ISR_HC_SR04_1.c **** * Return:
 405:Generated_Source\PSoC5/ISR_HC_SR04_1.c **** *   None
 406:Generated_Source\PSoC5/ISR_HC_SR04_1.c **** *
 407:Generated_Source\PSoC5/ISR_HC_SR04_1.c **** *******************************************************************************/
 408:Generated_Source\PSoC5/ISR_HC_SR04_1.c **** void ISR_HC_SR04_1_ClearPending(void)
 409:Generated_Source\PSoC5/ISR_HC_SR04_1.c **** {
 350              		.loc 1 409 0
 351              		.cfi_startproc
 352              		@ args = 0, pretend = 0, frame = 0
 353              		@ frame_needed = 0, uses_anonymous_args = 0
 354              		@ link register save eliminated.
 410:Generated_Source\PSoC5/ISR_HC_SR04_1.c ****     *ISR_HC_SR04_1_INTC_CLR_PD = ISR_HC_SR04_1__INTC_MASK;
 355              		.loc 1 410 0
 356 0000 4FF48052 		mov	r2, #4096
 357 0004 014B     		ldr	r3, .L38
 358 0006 1A60     		str	r2, [r3]
 359 0008 7047     		bx	lr
 360              	.L39:
 361 000a 00BF     		.align	2
 362              	.L38:
 363 000c 80E200E0 		.word	-536812928
 364              		.cfi_endproc
 365              	.LFE12:
 366              		.size	ISR_HC_SR04_1_ClearPending, .-ISR_HC_SR04_1_ClearPending
 367              		.section	.text.ISR_HC_SR04_1_Interrupt,"ax",%progbits
 368              		.align	2
 369              		.global	ISR_HC_SR04_1_Interrupt
 370              		.thumb
 371              		.thumb_func
 372              		.type	ISR_HC_SR04_1_Interrupt, %function
 373              	ISR_HC_SR04_1_Interrupt:
 374              	.LFB3:
 164:Generated_Source\PSoC5/ISR_HC_SR04_1.c ****     #ifdef ISR_HC_SR04_1_INTERRUPT_INTERRUPT_CALLBACK
ARM GAS  C:\Users\user\AppData\Local\Temp\ccilzRKI.s 			page 15


 375              		.loc 1 164 0
 376              		.cfi_startproc
 377              		@ args = 0, pretend = 0, frame = 0
 378              		@ frame_needed = 0, uses_anonymous_args = 0
 379 0000 08B5     		push	{r3, lr}
 380              		.cfi_def_cfa_offset 8
 381              		.cfi_offset 3, -8
 382              		.cfi_offset 14, -4
 171:Generated_Source\PSoC5/ISR_HC_SR04_1.c ****     ISR_HC_SR04_1_ClearPending();
 383              		.loc 1 171 0
 384 0002 FFF7FEFF 		bl	HC_SR04_1_REG_Read
 385              	.LVL18:
 386 0006 064B     		ldr	r3, .L42
 387 0008 1870     		strb	r0, [r3]
 172:Generated_Source\PSoC5/ISR_HC_SR04_1.c ****     User_LED_Write(!User_LED_Read());
 388              		.loc 1 172 0
 389 000a FFF7FEFF 		bl	ISR_HC_SR04_1_ClearPending
 390              	.LVL19:
 173:Generated_Source\PSoC5/ISR_HC_SR04_1.c ****     /* `#START ISR_HC_SR04_1_Interrupt` */
 391              		.loc 1 173 0
 392 000e FFF7FEFF 		bl	User_LED_Read
 393              	.LVL20:
 394 0012 B0FA80F0 		clz	r0, r0
 395 0016 4009     		lsrs	r0, r0, #5
 396 0018 FFF7FEFF 		bl	User_LED_Write
 397              	.LVL21:
 398 001c 08BD     		pop	{r3, pc}
 399              	.L43:
 400 001e 00BF     		.align	2
 401              	.L42:
 402 0020 00000000 		.word	HC_SR01_Distance
 403              		.cfi_endproc
 404              	.LFE3:
 405              		.size	ISR_HC_SR04_1_Interrupt, .-ISR_HC_SR04_1_Interrupt
 406              		.text
 407              	.Letext0:
 408              		.file 2 "c:\\program files (x86)\\cypress\\psoc creator\\4.4\\psoc creator\\import\\gnu\\arm\\5.4.
 409              		.file 3 "c:\\program files (x86)\\cypress\\psoc creator\\4.4\\psoc creator\\import\\gnu\\arm\\5.4.
 410              		.file 4 "Generated_Source\\PSoC5/cytypes.h"
 411              		.file 5 "Generated_Source\\PSoC5\\HC_SR04_1_REG.h"
 412              		.file 6 "Generated_Source\\PSoC5\\User_LED.h"