ARM GAS  C:\Users\user\AppData\Local\Temp\ccJgTzij.s 			page 1


   1              		.syntax unified
   2              		.cpu cortex-m3
   3              		.fpu softvfp
   4              		.eabi_attribute 20, 1
   5              		.eabi_attribute 21, 1
   6              		.eabi_attribute 23, 3
   7              		.eabi_attribute 24, 1
   8              		.eabi_attribute 25, 1
   9              		.eabi_attribute 26, 1
  10              		.eabi_attribute 30, 1
  11              		.eabi_attribute 34, 1
  12              		.eabi_attribute 18, 4
  13              		.thumb
  14              		.syntax unified
  15              		.file	"main.c"
  16              		.text
  17              	.Ltext0:
  18              		.cfi_sections	.debug_frame
  19              		.section	.text.jsmn_alloc_token,"ax",%progbits
  20              		.align	2
  21              		.thumb
  22              		.thumb_func
  23              		.type	jsmn_alloc_token, %function
  24              	jsmn_alloc_token:
  25              	.LFB64:
  26              		.file 1 "jsmn.h"
   1:jsmn.h        **** /*
   2:jsmn.h        ****  * MIT License
   3:jsmn.h        ****  *
   4:jsmn.h        ****  * Copyright (c) 2010 Serge Zaitsev
   5:jsmn.h        ****  *
   6:jsmn.h        ****  * Permission is hereby granted, free of charge, to any person obtaining a copy
   7:jsmn.h        ****  * of this software and associated documentation files (the "Software"), to deal
   8:jsmn.h        ****  * in the Software without restriction, including without limitation the rights
   9:jsmn.h        ****  * to use, copy, modify, merge, publish, distribute, sublicense, and/or sell
  10:jsmn.h        ****  * copies of the Software, and to permit persons to whom the Software is
  11:jsmn.h        ****  * furnished to do so, subject to the following conditions:
  12:jsmn.h        ****  *
  13:jsmn.h        ****  * The above copyright notice and this permission notice shall be included in
  14:jsmn.h        ****  * all copies or substantial portions of the Software.
  15:jsmn.h        ****  *
  16:jsmn.h        ****  * THE SOFTWARE IS PROVIDED "AS IS", WITHOUT WARRANTY OF ANY KIND, EXPRESS OR
  17:jsmn.h        ****  * IMPLIED, INCLUDING BUT NOT LIMITED TO THE WARRANTIES OF MERCHANTABILITY,
  18:jsmn.h        ****  * FITNESS FOR A PARTICULAR PURPOSE AND NONINFRINGEMENT. IN NO EVENT SHALL THE
  19:jsmn.h        ****  * AUTHORS OR COPYRIGHT HOLDERS BE LIABLE FOR ANY CLAIM, DAMAGES OR OTHER
  20:jsmn.h        ****  * LIABILITY, WHETHER IN AN ACTION OF CONTRACT, TORT OR OTHERWISE, ARISING FROM,
  21:jsmn.h        ****  * OUT OF OR IN CONNECTION WITH THE SOFTWARE OR THE USE OR OTHER DEALINGS IN THE
  22:jsmn.h        ****  * SOFTWARE.
  23:jsmn.h        ****  */
  24:jsmn.h        **** #ifndef JSMN_H
  25:jsmn.h        **** #define JSMN_H
  26:jsmn.h        **** 
  27:jsmn.h        **** #include <stddef.h>
  28:jsmn.h        **** 
  29:jsmn.h        **** #ifdef __cplusplus
  30:jsmn.h        **** extern "C" {
  31:jsmn.h        **** #endif
ARM GAS  C:\Users\user\AppData\Local\Temp\ccJgTzij.s 			page 2


  32:jsmn.h        **** 
  33:jsmn.h        **** #ifdef JSMN_STATIC
  34:jsmn.h        **** #define JSMN_API static
  35:jsmn.h        **** #else
  36:jsmn.h        **** #define JSMN_API extern
  37:jsmn.h        **** #endif
  38:jsmn.h        **** 
  39:jsmn.h        **** /**
  40:jsmn.h        ****  * JSON type identifier. Basic types are:
  41:jsmn.h        ****  * 	o Object
  42:jsmn.h        ****  * 	o Array
  43:jsmn.h        ****  * 	o String
  44:jsmn.h        ****  * 	o Other primitive: number, boolean (true/false) or null
  45:jsmn.h        ****  */
  46:jsmn.h        **** typedef enum {
  47:jsmn.h        ****   JSMN_UNDEFINED = 0,
  48:jsmn.h        ****   JSMN_OBJECT = 1,
  49:jsmn.h        ****   JSMN_ARRAY = 2,
  50:jsmn.h        ****   JSMN_STRING = 3,
  51:jsmn.h        ****   JSMN_PRIMITIVE = 4
  52:jsmn.h        **** } jsmntype_t;
  53:jsmn.h        **** 
  54:jsmn.h        **** enum jsmnerr {
  55:jsmn.h        ****   /* Not enough tokens were provided */
  56:jsmn.h        ****   JSMN_ERROR_NOMEM = -1,
  57:jsmn.h        ****   /* Invalid character inside JSON string */
  58:jsmn.h        ****   JSMN_ERROR_INVAL = -2,
  59:jsmn.h        ****   /* The string is not a full JSON packet, more bytes expected */
  60:jsmn.h        ****   JSMN_ERROR_PART = -3
  61:jsmn.h        **** };
  62:jsmn.h        **** 
  63:jsmn.h        **** /**
  64:jsmn.h        ****  * JSON token description.
  65:jsmn.h        ****  * type		type (object, array, string etc.)
  66:jsmn.h        ****  * start	start position in JSON data string
  67:jsmn.h        ****  * end		end position in JSON data string
  68:jsmn.h        ****  */
  69:jsmn.h        **** typedef struct jsmntok {
  70:jsmn.h        ****   jsmntype_t type;
  71:jsmn.h        ****   int start;
  72:jsmn.h        ****   int end;
  73:jsmn.h        ****   int size;
  74:jsmn.h        **** #ifdef JSMN_PARENT_LINKS
  75:jsmn.h        ****   int parent;
  76:jsmn.h        **** #endif
  77:jsmn.h        **** } jsmntok_t;
  78:jsmn.h        **** 
  79:jsmn.h        **** /**
  80:jsmn.h        ****  * JSON parser. Contains an array of token blocks available. Also stores
  81:jsmn.h        ****  * the string being parsed now and current position in that string.
  82:jsmn.h        ****  */
  83:jsmn.h        **** typedef struct jsmn_parser {
  84:jsmn.h        ****   unsigned int pos;     /* offset in the JSON string */
  85:jsmn.h        ****   unsigned int toknext; /* next token to allocate */
  86:jsmn.h        ****   int toksuper;         /* superior token node, e.g. parent object or array */
  87:jsmn.h        **** } jsmn_parser;
  88:jsmn.h        **** 
ARM GAS  C:\Users\user\AppData\Local\Temp\ccJgTzij.s 			page 3


  89:jsmn.h        **** /**
  90:jsmn.h        ****  * Create JSON parser over an array of tokens
  91:jsmn.h        ****  */
  92:jsmn.h        **** JSMN_API void jsmn_init(jsmn_parser *parser);
  93:jsmn.h        **** 
  94:jsmn.h        **** /**
  95:jsmn.h        ****  * Run JSON parser. It parses a JSON data string into and array of tokens, each
  96:jsmn.h        ****  * describing
  97:jsmn.h        ****  * a single JSON object.
  98:jsmn.h        ****  */
  99:jsmn.h        **** JSMN_API int jsmn_parse(jsmn_parser *parser, const char *js, const size_t len,
 100:jsmn.h        ****                         jsmntok_t *tokens, const unsigned int num_tokens);
 101:jsmn.h        **** 
 102:jsmn.h        **** #ifndef JSMN_HEADER
 103:jsmn.h        **** /**
 104:jsmn.h        ****  * Allocates a fresh unused token from the token pool.
 105:jsmn.h        ****  */
 106:jsmn.h        **** static jsmntok_t *jsmn_alloc_token(jsmn_parser *parser, jsmntok_t *tokens,
 107:jsmn.h        ****                                    const size_t num_tokens) {
  27              		.loc 1 107 0
  28              		.cfi_startproc
  29              		@ args = 0, pretend = 0, frame = 0
  30              		@ frame_needed = 0, uses_anonymous_args = 0
  31              		@ link register save eliminated.
  32              	.LVL0:
 108:jsmn.h        ****   jsmntok_t *tok;
 109:jsmn.h        ****   if (parser->toknext >= num_tokens) {
  33              		.loc 1 109 0
  34 0000 4368     		ldr	r3, [r0, #4]
  35 0002 9342     		cmp	r3, r2
  36 0004 0AD2     		bcs	.L3
 110:jsmn.h        ****     return NULL;
 111:jsmn.h        ****   }
 112:jsmn.h        ****   tok = &tokens[parser->toknext++];
  37              		.loc 1 112 0
  38 0006 5A1C     		adds	r2, r3, #1
  39              	.LVL1:
  40 0008 4260     		str	r2, [r0, #4]
  41 000a 01EB0310 		add	r0, r1, r3, lsl #4
  42              	.LVL2:
 113:jsmn.h        ****   tok->start = tok->end = -1;
  43              		.loc 1 113 0
  44 000e 4FF0FF33 		mov	r3, #-1
  45 0012 8360     		str	r3, [r0, #8]
  46 0014 4360     		str	r3, [r0, #4]
 114:jsmn.h        ****   tok->size = 0;
  47              		.loc 1 114 0
  48 0016 0023     		movs	r3, #0
  49 0018 C360     		str	r3, [r0, #12]
 115:jsmn.h        **** #ifdef JSMN_PARENT_LINKS
 116:jsmn.h        ****   tok->parent = -1;
 117:jsmn.h        **** #endif
 118:jsmn.h        ****   return tok;
  50              		.loc 1 118 0
  51 001a 7047     		bx	lr
  52              	.LVL3:
  53              	.L3:
ARM GAS  C:\Users\user\AppData\Local\Temp\ccJgTzij.s 			page 4


 110:jsmn.h        ****   }
  54              		.loc 1 110 0
  55 001c 0020     		movs	r0, #0
  56              	.LVL4:
 119:jsmn.h        **** }
  57              		.loc 1 119 0
  58 001e 7047     		bx	lr
  59              		.cfi_endproc
  60              	.LFE64:
  61              		.size	jsmn_alloc_token, .-jsmn_alloc_token
  62              		.section	.text.jsmn_fill_token,"ax",%progbits
  63              		.align	2
  64              		.thumb
  65              		.thumb_func
  66              		.type	jsmn_fill_token, %function
  67              	jsmn_fill_token:
  68              	.LFB65:
 120:jsmn.h        **** 
 121:jsmn.h        **** /**
 122:jsmn.h        ****  * Fills token type and boundaries.
 123:jsmn.h        ****  */
 124:jsmn.h        **** static void jsmn_fill_token(jsmntok_t *token, const jsmntype_t type,
 125:jsmn.h        ****                             const int start, const int end) {
  69              		.loc 1 125 0
  70              		.cfi_startproc
  71              		@ args = 0, pretend = 0, frame = 0
  72              		@ frame_needed = 0, uses_anonymous_args = 0
  73              		@ link register save eliminated.
  74              	.LVL5:
 126:jsmn.h        ****   token->type = type;
  75              		.loc 1 126 0
  76 0000 0170     		strb	r1, [r0]
 127:jsmn.h        ****   token->start = start;
  77              		.loc 1 127 0
  78 0002 4260     		str	r2, [r0, #4]
 128:jsmn.h        ****   token->end = end;
  79              		.loc 1 128 0
  80 0004 8360     		str	r3, [r0, #8]
 129:jsmn.h        ****   token->size = 0;
  81              		.loc 1 129 0
  82 0006 0023     		movs	r3, #0
  83              	.LVL6:
  84 0008 C360     		str	r3, [r0, #12]
  85 000a 7047     		bx	lr
  86              		.cfi_endproc
  87              	.LFE65:
  88              		.size	jsmn_fill_token, .-jsmn_fill_token
  89              		.section	.text.jsmn_parse_primitive,"ax",%progbits
  90              		.align	2
  91              		.thumb
  92              		.thumb_func
  93              		.type	jsmn_parse_primitive, %function
  94              	jsmn_parse_primitive:
  95              	.LFB66:
 130:jsmn.h        **** }
 131:jsmn.h        **** 
 132:jsmn.h        **** /**
ARM GAS  C:\Users\user\AppData\Local\Temp\ccJgTzij.s 			page 5


 133:jsmn.h        ****  * Fills next available token with JSON primitive.
 134:jsmn.h        ****  */
 135:jsmn.h        **** static int jsmn_parse_primitive(jsmn_parser *parser, const char *js,
 136:jsmn.h        ****                                 const size_t len, jsmntok_t *tokens,
 137:jsmn.h        ****                                 const size_t num_tokens) {
  96              		.loc 1 137 0
  97              		.cfi_startproc
  98              		@ args = 4, pretend = 0, frame = 0
  99              		@ frame_needed = 0, uses_anonymous_args = 0
 100              	.LVL7:
 101 0000 70B5     		push	{r4, r5, r6, lr}
 102              		.cfi_def_cfa_offset 16
 103              		.cfi_offset 4, -16
 104              		.cfi_offset 5, -12
 105              		.cfi_offset 6, -8
 106              		.cfi_offset 14, -4
 138:jsmn.h        ****   jsmntok_t *token;
 139:jsmn.h        ****   int start;
 140:jsmn.h        **** 
 141:jsmn.h        ****   start = parser->pos;
 107              		.loc 1 141 0
 108 0002 0668     		ldr	r6, [r0]
 109              	.LVL8:
 142:jsmn.h        **** 
 143:jsmn.h        ****   for (; parser->pos < len && js[parser->pos] != '\0'; parser->pos++) {
 110              		.loc 1 143 0
 111 0004 1DE0     		b	.L6
 112              	.L13:
 144:jsmn.h        ****     switch (js[parser->pos]) {
 113              		.loc 1 144 0
 114 0006 202C     		cmp	r4, #32
 115 0008 21D0     		beq	.L8
 116 000a 06D8     		bhi	.L9
 117 000c 092C     		cmp	r4, #9
 118 000e 0ED3     		bcc	.L7
 119 0010 0A2C     		cmp	r4, #10
 120 0012 1CD9     		bls	.L8
 121 0014 0D2C     		cmp	r4, #13
 122 0016 0AD1     		bne	.L7
 123 0018 19E0     		b	.L8
 124              	.L9:
 125 001a 3A2C     		cmp	r4, #58
 126 001c 17D0     		beq	.L8
 127 001e 02D8     		bhi	.L10
 128 0020 2C2C     		cmp	r4, #44
 129 0022 04D1     		bne	.L7
 130 0024 13E0     		b	.L8
 131              	.L10:
 132 0026 5D2C     		cmp	r4, #93
 133 0028 11D0     		beq	.L8
 134 002a 7D2C     		cmp	r4, #125
 135 002c 0FD0     		beq	.L8
 136              	.L7:
 145:jsmn.h        **** #ifndef JSMN_STRICT
 146:jsmn.h        ****     /* In strict mode primitive must be followed by "," or "}" or "]" */
 147:jsmn.h        ****     case ':':
 148:jsmn.h        **** #endif
ARM GAS  C:\Users\user\AppData\Local\Temp\ccJgTzij.s 			page 6


 149:jsmn.h        ****     case '\t':
 150:jsmn.h        ****     case '\r':
 151:jsmn.h        ****     case '\n':
 152:jsmn.h        ****     case ' ':
 153:jsmn.h        ****     case ',':
 154:jsmn.h        ****     case ']':
 155:jsmn.h        ****     case '}':
 156:jsmn.h        ****       goto found;
 157:jsmn.h        ****     default:
 158:jsmn.h        ****                    /* to quiet a warning from gcc*/
 159:jsmn.h        ****       break;
 160:jsmn.h        ****     }
 161:jsmn.h        ****     if (js[parser->pos] < 32 || js[parser->pos] >= 127) {
 137              		.loc 1 161 0
 138 002e 203C     		subs	r4, r4, #32
 139 0030 E4B2     		uxtb	r4, r4
 140 0032 5E2C     		cmp	r4, #94
 141 0034 03D9     		bls	.L11
 162:jsmn.h        ****       parser->pos = start;
 142              		.loc 1 162 0
 143 0036 0660     		str	r6, [r0]
 163:jsmn.h        ****       return JSMN_ERROR_INVAL;
 144              		.loc 1 163 0
 145 0038 6FF00100 		mvn	r0, #1
 146              	.LVL9:
 147 003c 70BD     		pop	{r4, r5, r6, pc}
 148              	.LVL10:
 149              	.L11:
 143:jsmn.h        ****     switch (js[parser->pos]) {
 150              		.loc 1 143 0
 151 003e 0135     		adds	r5, r5, #1
 152 0040 0560     		str	r5, [r0]
 153              	.L6:
 143:jsmn.h        ****     switch (js[parser->pos]) {
 154              		.loc 1 143 0 is_stmt 0 discriminator 1
 155 0042 0568     		ldr	r5, [r0]
 156 0044 9542     		cmp	r5, r2
 157 0046 02D2     		bcs	.L8
 143:jsmn.h        ****     switch (js[parser->pos]) {
 158              		.loc 1 143 0 discriminator 2
 159 0048 4C5D     		ldrb	r4, [r1, r5]	@ zero_extendqisi2
 160 004a 002C     		cmp	r4, #0
 161 004c DBD1     		bne	.L13
 162              	.L8:
 164:jsmn.h        ****     }
 165:jsmn.h        ****   }
 166:jsmn.h        **** #ifdef JSMN_STRICT
 167:jsmn.h        ****   /* In strict mode primitive must be followed by a comma/object/array */
 168:jsmn.h        ****   parser->pos = start;
 169:jsmn.h        ****   return JSMN_ERROR_PART;
 170:jsmn.h        **** #endif
 171:jsmn.h        **** 
 172:jsmn.h        **** found:
 173:jsmn.h        ****   if (tokens == NULL) {
 163              		.loc 1 173 0 is_stmt 1
 164 004e 1BB9     		cbnz	r3, .L14
 174:jsmn.h        ****     parser->pos--;
ARM GAS  C:\Users\user\AppData\Local\Temp\ccJgTzij.s 			page 7


 165              		.loc 1 174 0
 166 0050 013D     		subs	r5, r5, #1
 167 0052 0560     		str	r5, [r0]
 175:jsmn.h        ****     return 0;
 168              		.loc 1 175 0
 169 0054 0020     		movs	r0, #0
 170              	.LVL11:
 171 0056 70BD     		pop	{r4, r5, r6, pc}
 172              	.LVL12:
 173              	.L14:
 174 0058 1946     		mov	r1, r3
 175              	.LVL13:
 176 005a 0446     		mov	r4, r0
 176:jsmn.h        ****   }
 177:jsmn.h        ****   token = jsmn_alloc_token(parser, tokens, num_tokens);
 177              		.loc 1 177 0
 178 005c 049A     		ldr	r2, [sp, #16]
 179              	.LVL14:
 180 005e FFF7FEFF 		bl	jsmn_alloc_token
 181              	.LVL15:
 178:jsmn.h        ****   if (token == NULL) {
 182              		.loc 1 178 0
 183 0062 18B9     		cbnz	r0, .L15
 179:jsmn.h        ****     parser->pos = start;
 184              		.loc 1 179 0
 185 0064 2660     		str	r6, [r4]
 180:jsmn.h        ****     return JSMN_ERROR_NOMEM;
 186              		.loc 1 180 0
 187 0066 4FF0FF30 		mov	r0, #-1
 188              	.LVL16:
 189 006a 70BD     		pop	{r4, r5, r6, pc}
 190              	.LVL17:
 191              	.L15:
 181:jsmn.h        ****   }
 182:jsmn.h        ****   jsmn_fill_token(token, JSMN_PRIMITIVE, start, parser->pos);
 192              		.loc 1 182 0
 193 006c 2368     		ldr	r3, [r4]
 194 006e 3246     		mov	r2, r6
 195 0070 0421     		movs	r1, #4
 196 0072 FFF7FEFF 		bl	jsmn_fill_token
 197              	.LVL18:
 183:jsmn.h        **** #ifdef JSMN_PARENT_LINKS
 184:jsmn.h        ****   token->parent = parser->toksuper;
 185:jsmn.h        **** #endif
 186:jsmn.h        ****   parser->pos--;
 198              		.loc 1 186 0
 199 0076 2368     		ldr	r3, [r4]
 200 0078 013B     		subs	r3, r3, #1
 201 007a 2360     		str	r3, [r4]
 187:jsmn.h        ****   return 0;
 202              		.loc 1 187 0
 203 007c 0020     		movs	r0, #0
 188:jsmn.h        **** }
 204              		.loc 1 188 0
 205 007e 70BD     		pop	{r4, r5, r6, pc}
 206              		.cfi_endproc
 207              	.LFE66:
ARM GAS  C:\Users\user\AppData\Local\Temp\ccJgTzij.s 			page 8


 208              		.size	jsmn_parse_primitive, .-jsmn_parse_primitive
 209              		.section	.text.jsmn_parse_string,"ax",%progbits
 210              		.align	2
 211              		.thumb
 212              		.thumb_func
 213              		.type	jsmn_parse_string, %function
 214              	jsmn_parse_string:
 215              	.LFB67:
 189:jsmn.h        **** 
 190:jsmn.h        **** /**
 191:jsmn.h        ****  * Fills next token with JSON string.
 192:jsmn.h        ****  */
 193:jsmn.h        **** static int jsmn_parse_string(jsmn_parser *parser, const char *js,
 194:jsmn.h        ****                              const size_t len, jsmntok_t *tokens,
 195:jsmn.h        ****                              const size_t num_tokens) {
 216              		.loc 1 195 0
 217              		.cfi_startproc
 218              		@ args = 4, pretend = 0, frame = 0
 219              		@ frame_needed = 0, uses_anonymous_args = 0
 220              	.LVL19:
 221 0000 F8B5     		push	{r3, r4, r5, r6, r7, lr}
 222              		.cfi_def_cfa_offset 24
 223              		.cfi_offset 3, -24
 224              		.cfi_offset 4, -20
 225              		.cfi_offset 5, -16
 226              		.cfi_offset 6, -12
 227              		.cfi_offset 7, -8
 228              		.cfi_offset 14, -4
 196:jsmn.h        ****   jsmntok_t *token;
 197:jsmn.h        **** 
 198:jsmn.h        ****   int start = parser->pos;
 229              		.loc 1 198 0
 230 0002 0668     		ldr	r6, [r0]
 231              	.LVL20:
 199:jsmn.h        **** 
 200:jsmn.h        ****   parser->pos++;
 232              		.loc 1 200 0
 233 0004 741C     		adds	r4, r6, #1
 234 0006 0460     		str	r4, [r0]
 201:jsmn.h        **** 
 202:jsmn.h        ****   /* Skip starting quote */
 203:jsmn.h        ****   for (; parser->pos < len && js[parser->pos] != '\0'; parser->pos++) {
 235              		.loc 1 203 0
 236 0008 7AE0     		b	.L18
 237              	.L31:
 238              	.LVL21:
 239              	.LBB2:
 204:jsmn.h        ****     char c = js[parser->pos];
 205:jsmn.h        **** 
 206:jsmn.h        ****     /* Quote: end of string */
 207:jsmn.h        ****     if (c == '\"') {
 240              		.loc 1 207 0
 241 000a 222D     		cmp	r5, #34
 242 000c 13D1     		bne	.L19
 208:jsmn.h        ****       if (tokens == NULL) {
 243              		.loc 1 208 0
 244 000e 002B     		cmp	r3, #0
ARM GAS  C:\Users\user\AppData\Local\Temp\ccJgTzij.s 			page 9


 245 0010 00F08180 		beq	.L32
 246 0014 1946     		mov	r1, r3
 247              	.LVL22:
 248 0016 0446     		mov	r4, r0
 209:jsmn.h        ****         return 0;
 210:jsmn.h        ****       }
 211:jsmn.h        ****       token = jsmn_alloc_token(parser, tokens, num_tokens);
 249              		.loc 1 211 0
 250 0018 069A     		ldr	r2, [sp, #24]
 251              	.LVL23:
 252 001a FFF7FEFF 		bl	jsmn_alloc_token
 253              	.LVL24:
 212:jsmn.h        ****       if (token == NULL) {
 254              		.loc 1 212 0
 255 001e 18B9     		cbnz	r0, .L21
 213:jsmn.h        ****         parser->pos = start;
 256              		.loc 1 213 0
 257 0020 2660     		str	r6, [r4]
 214:jsmn.h        ****         return JSMN_ERROR_NOMEM;
 258              		.loc 1 214 0
 259 0022 4FF0FF30 		mov	r0, #-1
 260              	.LVL25:
 261 0026 F8BD     		pop	{r3, r4, r5, r6, r7, pc}
 262              	.LVL26:
 263              	.L21:
 215:jsmn.h        ****       }
 216:jsmn.h        ****       jsmn_fill_token(token, JSMN_STRING, start + 1, parser->pos);
 264              		.loc 1 216 0
 265 0028 2368     		ldr	r3, [r4]
 266 002a 721C     		adds	r2, r6, #1
 267 002c 0321     		movs	r1, #3
 268 002e FFF7FEFF 		bl	jsmn_fill_token
 269              	.LVL27:
 217:jsmn.h        **** #ifdef JSMN_PARENT_LINKS
 218:jsmn.h        ****       token->parent = parser->toksuper;
 219:jsmn.h        **** #endif
 220:jsmn.h        ****       return 0;
 270              		.loc 1 220 0
 271 0032 0020     		movs	r0, #0
 272 0034 F8BD     		pop	{r3, r4, r5, r6, r7, pc}
 273              	.LVL28:
 274              	.L19:
 221:jsmn.h        ****     }
 222:jsmn.h        **** 
 223:jsmn.h        ****     /* Backslash: Quoted symbol expected */
 224:jsmn.h        ****     if (c == '\\' && parser->pos + 1 < len) {
 275              		.loc 1 224 0
 276 0036 5C2D     		cmp	r5, #92
 277 0038 5FD1     		bne	.L22
 278              		.loc 1 224 0 is_stmt 0 discriminator 1
 279 003a 0134     		adds	r4, r4, #1
 280 003c A242     		cmp	r2, r4
 281 003e 5CD9     		bls	.L22
 282              	.LBB3:
 225:jsmn.h        ****       int i;
 226:jsmn.h        ****       parser->pos++;
 283              		.loc 1 226 0 is_stmt 1
ARM GAS  C:\Users\user\AppData\Local\Temp\ccJgTzij.s 			page 10


 284 0040 0460     		str	r4, [r0]
 227:jsmn.h        ****       switch (js[parser->pos]) {
 285              		.loc 1 227 0
 286 0042 0D5D     		ldrb	r5, [r1, r4]	@ zero_extendqisi2
 287              	.LVL29:
 288 0044 223D     		subs	r5, r5, #34
 289 0046 532D     		cmp	r5, #83
 290 0048 53D8     		bhi	.L23
 291 004a DFE805F0 		tbb	[pc, r5]
 292              	.L24:
 293 004e 56       		.byte	(.L22-.L24)/2
 294 004f 52       		.byte	(.L23-.L24)/2
 295 0050 52       		.byte	(.L23-.L24)/2
 296 0051 52       		.byte	(.L23-.L24)/2
 297 0052 52       		.byte	(.L23-.L24)/2
 298 0053 52       		.byte	(.L23-.L24)/2
 299 0054 52       		.byte	(.L23-.L24)/2
 300 0055 52       		.byte	(.L23-.L24)/2
 301 0056 52       		.byte	(.L23-.L24)/2
 302 0057 52       		.byte	(.L23-.L24)/2
 303 0058 52       		.byte	(.L23-.L24)/2
 304 0059 52       		.byte	(.L23-.L24)/2
 305 005a 52       		.byte	(.L23-.L24)/2
 306 005b 56       		.byte	(.L22-.L24)/2
 307 005c 52       		.byte	(.L23-.L24)/2
 308 005d 52       		.byte	(.L23-.L24)/2
 309 005e 52       		.byte	(.L23-.L24)/2
 310 005f 52       		.byte	(.L23-.L24)/2
 311 0060 52       		.byte	(.L23-.L24)/2
 312 0061 52       		.byte	(.L23-.L24)/2
 313 0062 52       		.byte	(.L23-.L24)/2
 314 0063 52       		.byte	(.L23-.L24)/2
 315 0064 52       		.byte	(.L23-.L24)/2
 316 0065 52       		.byte	(.L23-.L24)/2
 317 0066 52       		.byte	(.L23-.L24)/2
 318 0067 52       		.byte	(.L23-.L24)/2
 319 0068 52       		.byte	(.L23-.L24)/2
 320 0069 52       		.byte	(.L23-.L24)/2
 321 006a 52       		.byte	(.L23-.L24)/2
 322 006b 52       		.byte	(.L23-.L24)/2
 323 006c 52       		.byte	(.L23-.L24)/2
 324 006d 52       		.byte	(.L23-.L24)/2
 325 006e 52       		.byte	(.L23-.L24)/2
 326 006f 52       		.byte	(.L23-.L24)/2
 327 0070 52       		.byte	(.L23-.L24)/2
 328 0071 52       		.byte	(.L23-.L24)/2
 329 0072 52       		.byte	(.L23-.L24)/2
 330 0073 52       		.byte	(.L23-.L24)/2
 331 0074 52       		.byte	(.L23-.L24)/2
 332 0075 52       		.byte	(.L23-.L24)/2
 333 0076 52       		.byte	(.L23-.L24)/2
 334 0077 52       		.byte	(.L23-.L24)/2
 335 0078 52       		.byte	(.L23-.L24)/2
 336 0079 52       		.byte	(.L23-.L24)/2
 337 007a 52       		.byte	(.L23-.L24)/2
 338 007b 52       		.byte	(.L23-.L24)/2
 339 007c 52       		.byte	(.L23-.L24)/2
ARM GAS  C:\Users\user\AppData\Local\Temp\ccJgTzij.s 			page 11


 340 007d 52       		.byte	(.L23-.L24)/2
 341 007e 52       		.byte	(.L23-.L24)/2
 342 007f 52       		.byte	(.L23-.L24)/2
 343 0080 52       		.byte	(.L23-.L24)/2
 344 0081 52       		.byte	(.L23-.L24)/2
 345 0082 52       		.byte	(.L23-.L24)/2
 346 0083 52       		.byte	(.L23-.L24)/2
 347 0084 52       		.byte	(.L23-.L24)/2
 348 0085 52       		.byte	(.L23-.L24)/2
 349 0086 52       		.byte	(.L23-.L24)/2
 350 0087 52       		.byte	(.L23-.L24)/2
 351 0088 56       		.byte	(.L22-.L24)/2
 352 0089 52       		.byte	(.L23-.L24)/2
 353 008a 52       		.byte	(.L23-.L24)/2
 354 008b 52       		.byte	(.L23-.L24)/2
 355 008c 52       		.byte	(.L23-.L24)/2
 356 008d 52       		.byte	(.L23-.L24)/2
 357 008e 56       		.byte	(.L22-.L24)/2
 358 008f 52       		.byte	(.L23-.L24)/2
 359 0090 52       		.byte	(.L23-.L24)/2
 360 0091 52       		.byte	(.L23-.L24)/2
 361 0092 56       		.byte	(.L22-.L24)/2
 362 0093 52       		.byte	(.L23-.L24)/2
 363 0094 52       		.byte	(.L23-.L24)/2
 364 0095 52       		.byte	(.L23-.L24)/2
 365 0096 52       		.byte	(.L23-.L24)/2
 366 0097 52       		.byte	(.L23-.L24)/2
 367 0098 52       		.byte	(.L23-.L24)/2
 368 0099 52       		.byte	(.L23-.L24)/2
 369 009a 56       		.byte	(.L22-.L24)/2
 370 009b 52       		.byte	(.L23-.L24)/2
 371 009c 52       		.byte	(.L23-.L24)/2
 372 009d 52       		.byte	(.L23-.L24)/2
 373 009e 56       		.byte	(.L22-.L24)/2
 374 009f 52       		.byte	(.L23-.L24)/2
 375 00a0 56       		.byte	(.L22-.L24)/2
 376 00a1 2A       		.byte	(.L25-.L24)/2
 377              		.p2align 1
 378              	.L25:
 228:jsmn.h        ****       /* Allowed escaped symbols */
 229:jsmn.h        ****       case '\"':
 230:jsmn.h        ****       case '/':
 231:jsmn.h        ****       case '\\':
 232:jsmn.h        ****       case 'b':
 233:jsmn.h        ****       case 'f':
 234:jsmn.h        ****       case 'r':
 235:jsmn.h        ****       case 'n':
 236:jsmn.h        ****       case 't':
 237:jsmn.h        ****         break;
 238:jsmn.h        ****       /* Allows escaped symbol \uXXXX */
 239:jsmn.h        ****       case 'u':
 240:jsmn.h        ****         parser->pos++;
 379              		.loc 1 240 0
 380 00a2 0134     		adds	r4, r4, #1
 381 00a4 0460     		str	r4, [r0]
 382              	.LVL30:
 241:jsmn.h        ****         for (i = 0; i < 4 && parser->pos < len && js[parser->pos] != '\0';
ARM GAS  C:\Users\user\AppData\Local\Temp\ccJgTzij.s 			page 12


 383              		.loc 1 241 0
 384 00a6 4FF0000E 		mov	lr, #0
 385 00aa 15E0     		b	.L26
 386              	.LVL31:
 387              	.L29:
 242:jsmn.h        ****              i++) {
 243:jsmn.h        ****           /* If it isn't a hex character we have an error */
 244:jsmn.h        ****           if (!((js[parser->pos] >= 48 && js[parser->pos] <= 57) ||   /* 0-9 */
 388              		.loc 1 244 0
 389 00ac A5F13007 		sub	r7, r5, #48
 390 00b0 FFB2     		uxtb	r7, r7
 391 00b2 092F     		cmp	r7, #9
 392 00b4 0CD9     		bls	.L27
 245:jsmn.h        ****                 (js[parser->pos] >= 65 && js[parser->pos] <= 70) ||   /* A-F */
 393              		.loc 1 245 0 discriminator 1
 394 00b6 A5F14107 		sub	r7, r5, #65
 395 00ba FFB2     		uxtb	r7, r7
 244:jsmn.h        ****                 (js[parser->pos] >= 65 && js[parser->pos] <= 70) ||   /* A-F */
 396              		.loc 1 244 0 discriminator 1
 397 00bc 052F     		cmp	r7, #5
 398 00be 07D9     		bls	.L27
 246:jsmn.h        ****                 (js[parser->pos] >= 97 && js[parser->pos] <= 102))) { /* a-f */
 399              		.loc 1 246 0 discriminator 2
 400 00c0 613D     		subs	r5, r5, #97
 401 00c2 EDB2     		uxtb	r5, r5
 244:jsmn.h        ****                 (js[parser->pos] >= 65 && js[parser->pos] <= 70) ||   /* A-F */
 402              		.loc 1 244 0 discriminator 2
 403 00c4 052D     		cmp	r5, #5
 404 00c6 03D9     		bls	.L27
 247:jsmn.h        ****             parser->pos = start;
 405              		.loc 1 247 0
 406 00c8 0660     		str	r6, [r0]
 248:jsmn.h        ****             return JSMN_ERROR_INVAL;
 407              		.loc 1 248 0
 408 00ca 6FF00100 		mvn	r0, #1
 409              	.LVL32:
 410 00ce F8BD     		pop	{r3, r4, r5, r6, r7, pc}
 411              	.LVL33:
 412              	.L27:
 249:jsmn.h        ****           }
 250:jsmn.h        ****           parser->pos++;
 413              		.loc 1 250 0
 414 00d0 0134     		adds	r4, r4, #1
 415 00d2 0460     		str	r4, [r0]
 242:jsmn.h        ****           /* If it isn't a hex character we have an error */
 416              		.loc 1 242 0
 417 00d4 0EF1010E 		add	lr, lr, #1
 418              	.LVL34:
 419              	.L26:
 241:jsmn.h        ****              i++) {
 420              		.loc 1 241 0 discriminator 1
 421 00d8 BEF1030F 		cmp	lr, #3
 422 00dc 05DC     		bgt	.L28
 241:jsmn.h        ****              i++) {
 423              		.loc 1 241 0 is_stmt 0 discriminator 2
 424 00de 0468     		ldr	r4, [r0]
 425 00e0 A242     		cmp	r2, r4
ARM GAS  C:\Users\user\AppData\Local\Temp\ccJgTzij.s 			page 13


 426 00e2 02D9     		bls	.L28
 241:jsmn.h        ****              i++) {
 427              		.loc 1 241 0 discriminator 3
 428 00e4 0D5D     		ldrb	r5, [r1, r4]	@ zero_extendqisi2
 429 00e6 002D     		cmp	r5, #0
 430 00e8 E0D1     		bne	.L29
 431              	.L28:
 251:jsmn.h        ****         }
 252:jsmn.h        ****         parser->pos--;
 432              		.loc 1 252 0 is_stmt 1
 433 00ea 0468     		ldr	r4, [r0]
 434 00ec 013C     		subs	r4, r4, #1
 435 00ee 0460     		str	r4, [r0]
 253:jsmn.h        ****         break;
 436              		.loc 1 253 0
 437 00f0 03E0     		b	.L22
 438              	.LVL35:
 439              	.L23:
 254:jsmn.h        ****       /* Unexpected symbol */
 255:jsmn.h        ****       default:
 256:jsmn.h        ****         parser->pos = start;
 440              		.loc 1 256 0
 441 00f2 0660     		str	r6, [r0]
 257:jsmn.h        ****         return JSMN_ERROR_INVAL;
 442              		.loc 1 257 0
 443 00f4 6FF00100 		mvn	r0, #1
 444              	.LVL36:
 445 00f8 F8BD     		pop	{r3, r4, r5, r6, r7, pc}
 446              	.LVL37:
 447              	.L22:
 448              	.LBE3:
 449              	.LBE2:
 203:jsmn.h        ****     char c = js[parser->pos];
 450              		.loc 1 203 0
 451 00fa 0468     		ldr	r4, [r0]
 452 00fc 0134     		adds	r4, r4, #1
 453 00fe 0460     		str	r4, [r0]
 454              	.L18:
 203:jsmn.h        ****     char c = js[parser->pos];
 455              		.loc 1 203 0 is_stmt 0 discriminator 1
 456 0100 0468     		ldr	r4, [r0]
 457 0102 9442     		cmp	r4, r2
 458 0104 03D2     		bcs	.L30
 203:jsmn.h        ****     char c = js[parser->pos];
 459              		.loc 1 203 0 discriminator 2
 460 0106 0D5D     		ldrb	r5, [r1, r4]	@ zero_extendqisi2
 461 0108 002D     		cmp	r5, #0
 462 010a 7FF47EAF 		bne	.L31
 463              	.L30:
 258:jsmn.h        ****       }
 259:jsmn.h        ****     }
 260:jsmn.h        ****   }
 261:jsmn.h        ****   parser->pos = start;
 464              		.loc 1 261 0 is_stmt 1
 465 010e 0660     		str	r6, [r0]
 262:jsmn.h        ****   return JSMN_ERROR_PART;
 466              		.loc 1 262 0
ARM GAS  C:\Users\user\AppData\Local\Temp\ccJgTzij.s 			page 14


 467 0110 6FF00200 		mvn	r0, #2
 468              	.LVL38:
 469 0114 F8BD     		pop	{r3, r4, r5, r6, r7, pc}
 470              	.LVL39:
 471              	.L32:
 472              	.LBB4:
 209:jsmn.h        ****       }
 473              		.loc 1 209 0
 474 0116 0020     		movs	r0, #0
 475              	.LVL40:
 476              	.LBE4:
 263:jsmn.h        **** }
 477              		.loc 1 263 0
 478 0118 F8BD     		pop	{r3, r4, r5, r6, r7, pc}
 479              		.cfi_endproc
 480              	.LFE67:
 481              		.size	jsmn_parse_string, .-jsmn_parse_string
 482 011a 00BF     		.section	.text.jsmn_parse,"ax",%progbits
 483              		.align	2
 484              		.global	jsmn_parse
 485              		.thumb
 486              		.thumb_func
 487              		.type	jsmn_parse, %function
 488              	jsmn_parse:
 489              	.LFB68:
 264:jsmn.h        **** 
 265:jsmn.h        **** /**
 266:jsmn.h        ****  * Parse JSON string and fill tokens.
 267:jsmn.h        ****  */
 268:jsmn.h        **** JSMN_API int jsmn_parse(jsmn_parser *parser, const char *js, const size_t len,
 269:jsmn.h        ****                         jsmntok_t *tokens, const unsigned int num_tokens) {
 490              		.loc 1 269 0
 491              		.cfi_startproc
 492              		@ args = 4, pretend = 0, frame = 0
 493              		@ frame_needed = 0, uses_anonymous_args = 0
 494              	.LVL41:
 495 0000 2DE9F047 		push	{r4, r5, r6, r7, r8, r9, r10, lr}
 496              		.cfi_def_cfa_offset 32
 497              		.cfi_offset 4, -32
 498              		.cfi_offset 5, -28
 499              		.cfi_offset 6, -24
 500              		.cfi_offset 7, -20
 501              		.cfi_offset 8, -16
 502              		.cfi_offset 9, -12
 503              		.cfi_offset 10, -8
 504              		.cfi_offset 14, -4
 505 0004 82B0     		sub	sp, sp, #8
 506              		.cfi_def_cfa_offset 40
 507 0006 0646     		mov	r6, r0
 508 0008 8846     		mov	r8, r1
 509 000a 1746     		mov	r7, r2
 510 000c 1D46     		mov	r5, r3
 511 000e DDF828A0 		ldr	r10, [sp, #40]
 270:jsmn.h        ****   int r;
 271:jsmn.h        ****   int i;
 272:jsmn.h        ****   jsmntok_t *token;
 273:jsmn.h        ****   int count = parser->toknext;
ARM GAS  C:\Users\user\AppData\Local\Temp\ccJgTzij.s 			page 15


 512              		.loc 1 273 0
 513 0012 D0F80490 		ldr	r9, [r0, #4]
 514              	.LVL42:
 274:jsmn.h        **** 
 275:jsmn.h        ****   for (; parser->pos < len && js[parser->pos] != '\0'; parser->pos++) {
 515              		.loc 1 275 0
 516 0016 D1E0     		b	.L35
 517              	.LVL43:
 518              	.L61:
 519              	.LBB5:
 276:jsmn.h        ****     char c;
 277:jsmn.h        ****     jsmntype_t type;
 278:jsmn.h        **** 
 279:jsmn.h        ****     c = js[parser->pos];
 280:jsmn.h        ****     switch (c) {
 520              		.loc 1 280 0
 521 0018 2C2C     		cmp	r4, #44
 522 001a 00F09280 		beq	.L37
 523 001e 0ED8     		bhi	.L38
 524 0020 0D2C     		cmp	r4, #13
 525 0022 00F0C880 		beq	.L39
 526 0026 04D8     		bhi	.L40
 527 0028 093C     		subs	r4, r4, #9
 528              	.LVL44:
 529 002a 012C     		cmp	r4, #1
 530 002c 40F2C380 		bls	.L39
 531 0030 ABE0     		b	.L36
 532              	.LVL45:
 533              	.L40:
 534 0032 202C     		cmp	r4, #32
 535 0034 00F0BF80 		beq	.L39
 536 0038 222C     		cmp	r4, #34
 537 003a 66D0     		beq	.L41
 538 003c A5E0     		b	.L36
 539              	.L38:
 540 003e 5D2C     		cmp	r4, #93
 541 0040 2DD0     		beq	.L42
 542 0042 04D8     		bhi	.L43
 543 0044 3A2C     		cmp	r4, #58
 544 0046 78D0     		beq	.L44
 545 0048 5B2C     		cmp	r4, #91
 546 004a 05D0     		beq	.L45
 547 004c 9DE0     		b	.L36
 548              	.L43:
 549 004e 7B2C     		cmp	r4, #123
 550 0050 02D0     		beq	.L45
 551 0052 7D2C     		cmp	r4, #125
 552 0054 23D0     		beq	.L42
 553 0056 98E0     		b	.L36
 554              	.L45:
 281:jsmn.h        ****     case '{':
 282:jsmn.h        ****     case '[':
 283:jsmn.h        ****       count++;
 555              		.loc 1 283 0
 556 0058 09F10109 		add	r9, r9, #1
 557              	.LVL46:
 284:jsmn.h        ****       if (tokens == NULL) {
ARM GAS  C:\Users\user\AppData\Local\Temp\ccJgTzij.s 			page 16


 558              		.loc 1 284 0
 559 005c 002D     		cmp	r5, #0
 560 005e 00F0AA80 		beq	.L39
 285:jsmn.h        ****         break;
 286:jsmn.h        ****       }
 287:jsmn.h        ****       token = jsmn_alloc_token(parser, tokens, num_tokens);
 561              		.loc 1 287 0
 562 0062 5246     		mov	r2, r10
 563 0064 2946     		mov	r1, r5
 564 0066 3046     		mov	r0, r6
 565 0068 FFF7FEFF 		bl	jsmn_alloc_token
 566              	.LVL47:
 288:jsmn.h        ****       if (token == NULL) {
 567              		.loc 1 288 0
 568 006c 0146     		mov	r1, r0
 569 006e 0028     		cmp	r0, #0
 570 0070 00F0BF80 		beq	.L65
 289:jsmn.h        ****         return JSMN_ERROR_NOMEM;
 290:jsmn.h        ****       }
 291:jsmn.h        ****       if (parser->toksuper != -1) {
 571              		.loc 1 291 0
 572 0074 B368     		ldr	r3, [r6, #8]
 573 0076 B3F1FF3F 		cmp	r3, #-1
 574 007a 04D0     		beq	.L47
 575              	.LBB6:
 292:jsmn.h        ****         jsmntok_t *t = &tokens[parser->toksuper];
 576              		.loc 1 292 0
 577 007c 05EB0313 		add	r3, r5, r3, lsl #4
 578              	.LVL48:
 293:jsmn.h        **** #ifdef JSMN_STRICT
 294:jsmn.h        ****         /* In strict mode an object or array can't become a key */
 295:jsmn.h        ****         if (t->type == JSMN_OBJECT) {
 296:jsmn.h        ****           return JSMN_ERROR_INVAL;
 297:jsmn.h        ****         }
 298:jsmn.h        **** #endif
 299:jsmn.h        ****         t->size++;
 579              		.loc 1 299 0
 580 0080 DA68     		ldr	r2, [r3, #12]
 581 0082 0132     		adds	r2, r2, #1
 582 0084 DA60     		str	r2, [r3, #12]
 583              	.LVL49:
 584              	.L47:
 585              	.LBE6:
 300:jsmn.h        **** #ifdef JSMN_PARENT_LINKS
 301:jsmn.h        ****         token->parent = parser->toksuper;
 302:jsmn.h        **** #endif
 303:jsmn.h        ****       }
 304:jsmn.h        ****       token->type = (c == '{' ? JSMN_OBJECT : JSMN_ARRAY);
 586              		.loc 1 304 0
 587 0086 7B2C     		cmp	r4, #123
 588 0088 01D1     		bne	.L66
 589 008a 0123     		movs	r3, #1
 590 008c 00E0     		b	.L48
 591              	.L66:
 592 008e 0223     		movs	r3, #2
 593              	.L48:
 594              		.loc 1 304 0 is_stmt 0 discriminator 4
ARM GAS  C:\Users\user\AppData\Local\Temp\ccJgTzij.s 			page 17


 595 0090 0B70     		strb	r3, [r1]
 305:jsmn.h        ****       token->start = parser->pos;
 596              		.loc 1 305 0 is_stmt 1 discriminator 4
 597 0092 3368     		ldr	r3, [r6]
 598 0094 4B60     		str	r3, [r1, #4]
 306:jsmn.h        ****       parser->toksuper = parser->toknext - 1;
 599              		.loc 1 306 0 discriminator 4
 600 0096 7368     		ldr	r3, [r6, #4]
 601 0098 013B     		subs	r3, r3, #1
 602 009a B360     		str	r3, [r6, #8]
 307:jsmn.h        ****       break;
 603              		.loc 1 307 0 discriminator 4
 604 009c 8BE0     		b	.L39
 605              	.LVL50:
 606              	.L42:
 308:jsmn.h        ****     case '}':
 309:jsmn.h        ****     case ']':
 310:jsmn.h        ****       if (tokens == NULL) {
 607              		.loc 1 310 0
 608 009e 002D     		cmp	r5, #0
 609 00a0 00F08980 		beq	.L39
 311:jsmn.h        ****         break;
 312:jsmn.h        ****       }
 313:jsmn.h        ****       type = (c == '}' ? JSMN_OBJECT : JSMN_ARRAY);
 610              		.loc 1 313 0
 611 00a4 7D2C     		cmp	r4, #125
 612 00a6 01D1     		bne	.L67
 613 00a8 0124     		movs	r4, #1
 614              	.LVL51:
 615 00aa 00E0     		b	.L49
 616              	.LVL52:
 617              	.L67:
 618 00ac 0224     		movs	r4, #2
 619              	.LVL53:
 620              	.L49:
 314:jsmn.h        **** #ifdef JSMN_PARENT_LINKS
 315:jsmn.h        ****       if (parser->toknext < 1) {
 316:jsmn.h        ****         return JSMN_ERROR_INVAL;
 317:jsmn.h        ****       }
 318:jsmn.h        ****       token = &tokens[parser->toknext - 1];
 319:jsmn.h        ****       for (;;) {
 320:jsmn.h        ****         if (token->start != -1 && token->end == -1) {
 321:jsmn.h        ****           if (token->type != type) {
 322:jsmn.h        ****             return JSMN_ERROR_INVAL;
 323:jsmn.h        ****           }
 324:jsmn.h        ****           token->end = parser->pos + 1;
 325:jsmn.h        ****           parser->toksuper = token->parent;
 326:jsmn.h        ****           break;
 327:jsmn.h        ****         }
 328:jsmn.h        ****         if (token->parent == -1) {
 329:jsmn.h        ****           if (token->type != type || parser->toksuper == -1) {
 330:jsmn.h        ****             return JSMN_ERROR_INVAL;
 331:jsmn.h        ****           }
 332:jsmn.h        ****           break;
 333:jsmn.h        ****         }
 334:jsmn.h        ****         token = &tokens[token->parent];
 335:jsmn.h        ****       }
ARM GAS  C:\Users\user\AppData\Local\Temp\ccJgTzij.s 			page 18


 336:jsmn.h        **** #else
 337:jsmn.h        ****       for (i = parser->toknext - 1; i >= 0; i--) {
 621              		.loc 1 337 0 discriminator 4
 622 00ae 7368     		ldr	r3, [r6, #4]
 623 00b0 013B     		subs	r3, r3, #1
 624              	.LVL54:
 625 00b2 14E0     		b	.L50
 626              	.L53:
 338:jsmn.h        ****         token = &tokens[i];
 627              		.loc 1 338 0
 628 00b4 05EB0312 		add	r2, r5, r3, lsl #4
 629              	.LVL55:
 339:jsmn.h        ****         if (token->start != -1 && token->end == -1) {
 630              		.loc 1 339 0
 631 00b8 5068     		ldr	r0, [r2, #4]
 632 00ba B0F1FF3F 		cmp	r0, #-1
 633 00be 0DD0     		beq	.L51
 634              		.loc 1 339 0 is_stmt 0 discriminator 1
 635 00c0 9068     		ldr	r0, [r2, #8]
 636 00c2 B0F1FF3F 		cmp	r0, #-1
 637 00c6 09D1     		bne	.L51
 340:jsmn.h        ****           if (token->type != type) {
 638              		.loc 1 340 0 is_stmt 1
 639 00c8 1078     		ldrb	r0, [r2]	@ zero_extendqisi2
 640 00ca 8442     		cmp	r4, r0
 641 00cc 40F09480 		bne	.L68
 341:jsmn.h        ****             return JSMN_ERROR_INVAL;
 342:jsmn.h        ****           }
 343:jsmn.h        ****           parser->toksuper = -1;
 642              		.loc 1 343 0
 643 00d0 4FF0FF30 		mov	r0, #-1
 644 00d4 B060     		str	r0, [r6, #8]
 344:jsmn.h        ****           token->end = parser->pos + 1;
 645              		.loc 1 344 0
 646 00d6 0131     		adds	r1, r1, #1
 647 00d8 9160     		str	r1, [r2, #8]
 345:jsmn.h        ****           break;
 648              		.loc 1 345 0
 649 00da 02E0     		b	.L52
 650              	.L51:
 337:jsmn.h        ****         token = &tokens[i];
 651              		.loc 1 337 0 discriminator 2
 652 00dc 013B     		subs	r3, r3, #1
 653              	.LVL56:
 654              	.L50:
 337:jsmn.h        ****         token = &tokens[i];
 655              		.loc 1 337 0 is_stmt 0 discriminator 1
 656 00de 002B     		cmp	r3, #0
 657 00e0 E8DA     		bge	.L53
 658              	.L52:
 346:jsmn.h        ****         }
 347:jsmn.h        ****       }
 348:jsmn.h        ****       /* Error if unmatched closing bracket */
 349:jsmn.h        ****       if (i == -1) {
 659              		.loc 1 349 0 is_stmt 1
 660 00e2 B3F1FF3F 		cmp	r3, #-1
 661 00e6 0DD1     		bne	.L54
ARM GAS  C:\Users\user\AppData\Local\Temp\ccJgTzij.s 			page 19


 662 00e8 89E0     		b	.L69
 663              	.L56:
 350:jsmn.h        ****         return JSMN_ERROR_INVAL;
 351:jsmn.h        ****       }
 352:jsmn.h        ****       for (; i >= 0; i--) {
 353:jsmn.h        ****         token = &tokens[i];
 664              		.loc 1 353 0
 665 00ea 05EB0312 		add	r2, r5, r3, lsl #4
 666              	.LVL57:
 354:jsmn.h        ****         if (token->start != -1 && token->end == -1) {
 667              		.loc 1 354 0
 668 00ee 5168     		ldr	r1, [r2, #4]
 669 00f0 B1F1FF3F 		cmp	r1, #-1
 670 00f4 05D0     		beq	.L55
 671              		.loc 1 354 0 is_stmt 0 discriminator 1
 672 00f6 9268     		ldr	r2, [r2, #8]
 673              	.LVL58:
 674 00f8 B2F1FF3F 		cmp	r2, #-1
 675 00fc 01D1     		bne	.L55
 355:jsmn.h        ****           parser->toksuper = i;
 676              		.loc 1 355 0 is_stmt 1
 677 00fe B360     		str	r3, [r6, #8]
 356:jsmn.h        ****           break;
 678              		.loc 1 356 0
 679 0100 59E0     		b	.L39
 680              	.L55:
 352:jsmn.h        ****         token = &tokens[i];
 681              		.loc 1 352 0
 682 0102 013B     		subs	r3, r3, #1
 683              	.LVL59:
 684              	.L54:
 352:jsmn.h        ****         token = &tokens[i];
 685              		.loc 1 352 0 is_stmt 0 discriminator 1
 686 0104 002B     		cmp	r3, #0
 687 0106 F0DA     		bge	.L56
 688 0108 55E0     		b	.L39
 689              	.LVL60:
 690              	.L41:
 357:jsmn.h        ****         }
 358:jsmn.h        ****       }
 359:jsmn.h        **** #endif
 360:jsmn.h        ****       break;
 361:jsmn.h        ****     case '\"':
 362:jsmn.h        ****       r = jsmn_parse_string(parser, js, len, tokens, num_tokens);
 691              		.loc 1 362 0 is_stmt 1
 692 010a CDF800A0 		str	r10, [sp]
 693 010e 2B46     		mov	r3, r5
 694 0110 3A46     		mov	r2, r7
 695 0112 4146     		mov	r1, r8
 696 0114 3046     		mov	r0, r6
 697 0116 FFF7FEFF 		bl	jsmn_parse_string
 698              	.LVL61:
 363:jsmn.h        ****       if (r < 0) {
 699              		.loc 1 363 0
 700 011a 0028     		cmp	r0, #0
 701 011c 76DB     		blt	.L46
 364:jsmn.h        ****         return r;
ARM GAS  C:\Users\user\AppData\Local\Temp\ccJgTzij.s 			page 20


 365:jsmn.h        ****       }
 366:jsmn.h        ****       count++;
 702              		.loc 1 366 0
 703 011e 09F10109 		add	r9, r9, #1
 704              	.LVL62:
 367:jsmn.h        ****       if (parser->toksuper != -1 && tokens != NULL) {
 705              		.loc 1 367 0
 706 0122 B368     		ldr	r3, [r6, #8]
 707 0124 B3F1FF3F 		cmp	r3, #-1
 708 0128 45D0     		beq	.L39
 709              		.loc 1 367 0 is_stmt 0 discriminator 1
 710 012a 002D     		cmp	r5, #0
 711 012c 43D0     		beq	.L39
 368:jsmn.h        ****         tokens[parser->toksuper].size++;
 712              		.loc 1 368 0 is_stmt 1
 713 012e 05EB0313 		add	r3, r5, r3, lsl #4
 714 0132 DA68     		ldr	r2, [r3, #12]
 715 0134 0132     		adds	r2, r2, #1
 716 0136 DA60     		str	r2, [r3, #12]
 717 0138 3DE0     		b	.L39
 718              	.LVL63:
 719              	.L44:
 369:jsmn.h        ****       }
 370:jsmn.h        ****       break;
 371:jsmn.h        ****     case '\t':
 372:jsmn.h        ****     case '\r':
 373:jsmn.h        ****     case '\n':
 374:jsmn.h        ****     case ' ':
 375:jsmn.h        ****       break;
 376:jsmn.h        ****     case ':':
 377:jsmn.h        ****       parser->toksuper = parser->toknext - 1;
 720              		.loc 1 377 0
 721 013a 7368     		ldr	r3, [r6, #4]
 722 013c 013B     		subs	r3, r3, #1
 723 013e B360     		str	r3, [r6, #8]
 378:jsmn.h        ****       break;
 724              		.loc 1 378 0
 725 0140 39E0     		b	.L39
 726              	.L37:
 379:jsmn.h        ****     case ',':
 380:jsmn.h        ****       if (tokens != NULL && parser->toksuper != -1 &&
 727              		.loc 1 380 0
 728 0142 002D     		cmp	r5, #0
 729 0144 37D0     		beq	.L39
 730              		.loc 1 380 0 is_stmt 0 discriminator 1
 731 0146 B368     		ldr	r3, [r6, #8]
 732 0148 B3F1FF3F 		cmp	r3, #-1
 733 014c 33D0     		beq	.L39
 381:jsmn.h        ****           tokens[parser->toksuper].type != JSMN_ARRAY &&
 734              		.loc 1 381 0 is_stmt 1 discriminator 2
 735 014e 1B01     		lsls	r3, r3, #4
 736 0150 EB5C     		ldrb	r3, [r5, r3]	@ zero_extendqisi2
 380:jsmn.h        ****           tokens[parser->toksuper].type != JSMN_ARRAY &&
 737              		.loc 1 380 0 discriminator 2
 738 0152 022B     		cmp	r3, #2
 739 0154 2FD0     		beq	.L39
 740              		.loc 1 381 0
ARM GAS  C:\Users\user\AppData\Local\Temp\ccJgTzij.s 			page 21


 741 0156 012B     		cmp	r3, #1
 742 0158 2DD0     		beq	.L39
 382:jsmn.h        ****           tokens[parser->toksuper].type != JSMN_OBJECT) {
 383:jsmn.h        **** #ifdef JSMN_PARENT_LINKS
 384:jsmn.h        ****         parser->toksuper = tokens[parser->toksuper].parent;
 385:jsmn.h        **** #else
 386:jsmn.h        ****         for (i = parser->toknext - 1; i >= 0; i--) {
 743              		.loc 1 386 0
 744 015a 7268     		ldr	r2, [r6, #4]
 745 015c 013A     		subs	r2, r2, #1
 746              	.LVL64:
 747 015e 11E0     		b	.L57
 748              	.L59:
 387:jsmn.h        ****           if (tokens[i].type == JSMN_ARRAY || tokens[i].type == JSMN_OBJECT) {
 749              		.loc 1 387 0
 750 0160 1301     		lsls	r3, r2, #4
 751 0162 E918     		adds	r1, r5, r3
 752 0164 EB5C     		ldrb	r3, [r5, r3]	@ zero_extendqisi2
 753 0166 013B     		subs	r3, r3, #1
 754 0168 DBB2     		uxtb	r3, r3
 755 016a 012B     		cmp	r3, #1
 756 016c 09D8     		bhi	.L58
 388:jsmn.h        ****             if (tokens[i].start != -1 && tokens[i].end == -1) {
 757              		.loc 1 388 0
 758 016e 4B68     		ldr	r3, [r1, #4]
 759 0170 B3F1FF3F 		cmp	r3, #-1
 760 0174 05D0     		beq	.L58
 761              		.loc 1 388 0 is_stmt 0 discriminator 1
 762 0176 8B68     		ldr	r3, [r1, #8]
 763 0178 B3F1FF3F 		cmp	r3, #-1
 764 017c 01D1     		bne	.L58
 389:jsmn.h        ****               parser->toksuper = i;
 765              		.loc 1 389 0 is_stmt 1
 766 017e B260     		str	r2, [r6, #8]
 390:jsmn.h        ****               break;
 767              		.loc 1 390 0
 768 0180 19E0     		b	.L39
 769              	.L58:
 386:jsmn.h        ****           if (tokens[i].type == JSMN_ARRAY || tokens[i].type == JSMN_OBJECT) {
 770              		.loc 1 386 0 discriminator 2
 771 0182 013A     		subs	r2, r2, #1
 772              	.LVL65:
 773              	.L57:
 386:jsmn.h        ****           if (tokens[i].type == JSMN_ARRAY || tokens[i].type == JSMN_OBJECT) {
 774              		.loc 1 386 0 is_stmt 0 discriminator 1
 775 0184 002A     		cmp	r2, #0
 776 0186 EBDA     		bge	.L59
 777 0188 15E0     		b	.L39
 778              	.LVL66:
 779              	.L36:
 391:jsmn.h        ****             }
 392:jsmn.h        ****           }
 393:jsmn.h        ****         }
 394:jsmn.h        **** #endif
 395:jsmn.h        ****       }
 396:jsmn.h        ****       break;
 397:jsmn.h        **** #ifdef JSMN_STRICT
ARM GAS  C:\Users\user\AppData\Local\Temp\ccJgTzij.s 			page 22


 398:jsmn.h        ****     /* In strict mode primitives are: numbers and booleans */
 399:jsmn.h        ****     case '-':
 400:jsmn.h        ****     case '0':
 401:jsmn.h        ****     case '1':
 402:jsmn.h        ****     case '2':
 403:jsmn.h        ****     case '3':
 404:jsmn.h        ****     case '4':
 405:jsmn.h        ****     case '5':
 406:jsmn.h        ****     case '6':
 407:jsmn.h        ****     case '7':
 408:jsmn.h        ****     case '8':
 409:jsmn.h        ****     case '9':
 410:jsmn.h        ****     case 't':
 411:jsmn.h        ****     case 'f':
 412:jsmn.h        ****     case 'n':
 413:jsmn.h        ****       /* And they must not be keys of the object */
 414:jsmn.h        ****       if (tokens != NULL && parser->toksuper != -1) {
 415:jsmn.h        ****         const jsmntok_t *t = &tokens[parser->toksuper];
 416:jsmn.h        ****         if (t->type == JSMN_OBJECT ||
 417:jsmn.h        ****             (t->type == JSMN_STRING && t->size != 0)) {
 418:jsmn.h        ****           return JSMN_ERROR_INVAL;
 419:jsmn.h        ****         }
 420:jsmn.h        ****       }
 421:jsmn.h        **** #else
 422:jsmn.h        ****     /* In non-strict mode every unquoted value is a primitive */
 423:jsmn.h        ****     default:
 424:jsmn.h        **** #endif
 425:jsmn.h        ****       r = jsmn_parse_primitive(parser, js, len, tokens, num_tokens);
 780              		.loc 1 425 0 is_stmt 1
 781 018a CDF800A0 		str	r10, [sp]
 782 018e 2B46     		mov	r3, r5
 783 0190 3A46     		mov	r2, r7
 784 0192 4146     		mov	r1, r8
 785 0194 3046     		mov	r0, r6
 786 0196 FFF7FEFF 		bl	jsmn_parse_primitive
 787              	.LVL67:
 426:jsmn.h        ****       if (r < 0) {
 788              		.loc 1 426 0
 789 019a 0028     		cmp	r0, #0
 790 019c 36DB     		blt	.L46
 427:jsmn.h        ****         return r;
 428:jsmn.h        ****       }
 429:jsmn.h        ****       count++;
 791              		.loc 1 429 0
 792 019e 09F10109 		add	r9, r9, #1
 793              	.LVL68:
 430:jsmn.h        ****       if (parser->toksuper != -1 && tokens != NULL) {
 794              		.loc 1 430 0
 795 01a2 B368     		ldr	r3, [r6, #8]
 796 01a4 B3F1FF3F 		cmp	r3, #-1
 797 01a8 05D0     		beq	.L39
 798              		.loc 1 430 0 is_stmt 0 discriminator 1
 799 01aa 25B1     		cbz	r5, .L39
 431:jsmn.h        ****         tokens[parser->toksuper].size++;
 800              		.loc 1 431 0 is_stmt 1
 801 01ac 05EB0313 		add	r3, r5, r3, lsl #4
 802 01b0 DA68     		ldr	r2, [r3, #12]
ARM GAS  C:\Users\user\AppData\Local\Temp\ccJgTzij.s 			page 23


 803 01b2 0132     		adds	r2, r2, #1
 804 01b4 DA60     		str	r2, [r3, #12]
 805              	.LVL69:
 806              	.L39:
 807              	.LBE5:
 275:jsmn.h        ****     char c;
 808              		.loc 1 275 0
 809 01b6 3368     		ldr	r3, [r6]
 810 01b8 0133     		adds	r3, r3, #1
 811 01ba 3360     		str	r3, [r6]
 812              	.L35:
 275:jsmn.h        ****     char c;
 813              		.loc 1 275 0 is_stmt 0 discriminator 1
 814 01bc 3168     		ldr	r1, [r6]
 815 01be B942     		cmp	r1, r7
 816 01c0 04D2     		bcs	.L60
 275:jsmn.h        ****     char c;
 817              		.loc 1 275 0 discriminator 2
 818 01c2 18F80140 		ldrb	r4, [r8, r1]	@ zero_extendqisi2
 819 01c6 002C     		cmp	r4, #0
 820 01c8 7FF426AF 		bne	.L61
 821              	.L60:
 432:jsmn.h        ****       }
 433:jsmn.h        ****       break;
 434:jsmn.h        **** 
 435:jsmn.h        **** #ifdef JSMN_STRICT
 436:jsmn.h        ****     /* Unexpected char in strict mode */
 437:jsmn.h        ****     default:
 438:jsmn.h        ****       return JSMN_ERROR_INVAL;
 439:jsmn.h        **** #endif
 440:jsmn.h        ****     }
 441:jsmn.h        ****   }
 442:jsmn.h        **** 
 443:jsmn.h        ****   if (tokens != NULL) {
 822              		.loc 1 443 0 is_stmt 1
 823 01cc D5B1     		cbz	r5, .L72
 444:jsmn.h        ****     for (i = parser->toknext - 1; i >= 0; i--) {
 824              		.loc 1 444 0
 825 01ce 7368     		ldr	r3, [r6, #4]
 826 01d0 013B     		subs	r3, r3, #1
 827              	.LVL70:
 828 01d2 0AE0     		b	.L62
 829              	.L64:
 445:jsmn.h        ****       /* Unmatched opened object or array */
 446:jsmn.h        ****       if (tokens[i].start != -1 && tokens[i].end == -1) {
 830              		.loc 1 446 0
 831 01d4 05EB0312 		add	r2, r5, r3, lsl #4
 832 01d8 5168     		ldr	r1, [r2, #4]
 833 01da B1F1FF3F 		cmp	r1, #-1
 834 01de 03D0     		beq	.L63
 835              		.loc 1 446 0 is_stmt 0 discriminator 1
 836 01e0 9268     		ldr	r2, [r2, #8]
 837 01e2 B2F1FF3F 		cmp	r2, #-1
 838 01e6 0FD0     		beq	.L73
 839              	.L63:
 444:jsmn.h        ****     for (i = parser->toknext - 1; i >= 0; i--) {
 840              		.loc 1 444 0 is_stmt 1 discriminator 2
ARM GAS  C:\Users\user\AppData\Local\Temp\ccJgTzij.s 			page 24


 841 01e8 013B     		subs	r3, r3, #1
 842              	.LVL71:
 843              	.L62:
 444:jsmn.h        ****     for (i = parser->toknext - 1; i >= 0; i--) {
 844              		.loc 1 444 0 is_stmt 0 discriminator 1
 845 01ea 002B     		cmp	r3, #0
 846 01ec F2DA     		bge	.L64
 447:jsmn.h        ****         return JSMN_ERROR_PART;
 448:jsmn.h        ****       }
 449:jsmn.h        ****     }
 450:jsmn.h        ****   }
 451:jsmn.h        **** 
 452:jsmn.h        ****   return count;
 847              		.loc 1 452 0 is_stmt 1
 848 01ee 4846     		mov	r0, r9
 849 01f0 0CE0     		b	.L46
 850              	.LVL72:
 851              	.L65:
 852              	.LBB7:
 289:jsmn.h        ****       }
 853              		.loc 1 289 0
 854 01f2 4FF0FF30 		mov	r0, #-1
 855              	.LVL73:
 856 01f6 09E0     		b	.L46
 857              	.LVL74:
 858              	.L68:
 341:jsmn.h        ****           }
 859              		.loc 1 341 0
 860 01f8 6FF00100 		mvn	r0, #1
 861 01fc 06E0     		b	.L46
 862              	.LVL75:
 863              	.L69:
 350:jsmn.h        ****       }
 864              		.loc 1 350 0
 865 01fe 6FF00100 		mvn	r0, #1
 866 0202 03E0     		b	.L46
 867              	.LVL76:
 868              	.L72:
 869              	.LBE7:
 870              		.loc 1 452 0
 871 0204 4846     		mov	r0, r9
 872 0206 01E0     		b	.L46
 873              	.LVL77:
 874              	.L73:
 447:jsmn.h        ****       }
 875              		.loc 1 447 0
 876 0208 6FF00200 		mvn	r0, #2
 877              	.LVL78:
 878              	.L46:
 453:jsmn.h        **** }
 879              		.loc 1 453 0
 880 020c 02B0     		add	sp, sp, #8
 881              		.cfi_def_cfa_offset 32
 882              		@ sp needed
 883 020e BDE8F087 		pop	{r4, r5, r6, r7, r8, r9, r10, pc}
 884              		.cfi_endproc
 885              	.LFE68:
ARM GAS  C:\Users\user\AppData\Local\Temp\ccJgTzij.s 			page 25


 886              		.size	jsmn_parse, .-jsmn_parse
 887 0212 00BF     		.section	.text.jsmn_init,"ax",%progbits
 888              		.align	2
 889              		.global	jsmn_init
 890              		.thumb
 891              		.thumb_func
 892              		.type	jsmn_init, %function
 893              	jsmn_init:
 894              	.LFB69:
 454:jsmn.h        **** 
 455:jsmn.h        **** /**
 456:jsmn.h        ****  * Creates a new parser based over a given buffer with an array of tokens
 457:jsmn.h        ****  * available.
 458:jsmn.h        ****  */
 459:jsmn.h        **** JSMN_API void jsmn_init(jsmn_parser *parser) {
 895              		.loc 1 459 0
 896              		.cfi_startproc
 897              		@ args = 0, pretend = 0, frame = 0
 898              		@ frame_needed = 0, uses_anonymous_args = 0
 899              		@ link register save eliminated.
 900              	.LVL79:
 460:jsmn.h        ****   parser->pos = 0;
 901              		.loc 1 460 0
 902 0000 0023     		movs	r3, #0
 903 0002 0360     		str	r3, [r0]
 461:jsmn.h        ****   parser->toknext = 0;
 904              		.loc 1 461 0
 905 0004 4360     		str	r3, [r0, #4]
 462:jsmn.h        ****   parser->toksuper = -1;
 906              		.loc 1 462 0
 907 0006 4FF0FF33 		mov	r3, #-1
 908 000a 8360     		str	r3, [r0, #8]
 909 000c 7047     		bx	lr
 910              		.cfi_endproc
 911              	.LFE69:
 912              		.size	jsmn_init, .-jsmn_init
 913 000e 00BF     		.section	.text.MyCustomISR,"ax",%progbits
 914              		.align	2
 915              		.global	MyCustomISR
 916              		.thumb
 917              		.thumb_func
 918              		.type	MyCustomISR, %function
 919              	MyCustomISR:
 920              	.LFB70:
 921              		.file 2 "main.c"
   1:main.c        **** /* ========================================
   2:main.c        ****  *
   3:main.c        ****  * Copyright YOUR COMPANY, THE YEAR
   4:main.c        ****  * All Rights Reserved
   5:main.c        ****  * UNPUBLISHED, LICENSED SOFTWARE.
   6:main.c        ****  *
   7:main.c        ****  * CONFIDENTIAL AND PROPRIETARY INFORMATION
   8:main.c        ****  * WHICH IS THE PROPERTY OF your company.
   9:main.c        ****  *
  10:main.c        ****  * ========================================
  11:main.c        **** */
  12:main.c        **** 
ARM GAS  C:\Users\user\AppData\Local\Temp\ccJgTzij.s 			page 26


  13:main.c        **** /***********************************************************************
  14:main.c        **** * Includes
  15:main.c        **** ***********************************************************************/
  16:main.c        **** 
  17:main.c        **** #include "project.h"
  18:main.c        **** #include "stdio.h"
  19:main.c        **** #include "jsmn.h"
  20:main.c        **** 
  21:main.c        **** /***********************************************************************
  22:main.c        **** * Informations
  23:main.c        **** ***********************************************************************/
  24:main.c        **** //https://www.hackster.io/PSoC_Rocks/psoc-4-measuring-distance-with-hcsr-04-and-cy8ckit-049-4200-db
  25:main.c        **** 
  26:main.c        **** /***********************************************************************
  27:main.c        **** * Declarations
  28:main.c        **** ***********************************************************************/
  29:main.c        ****  
  30:main.c        **** /***********************************************************************
  31:main.c        **** * Global Variable
  32:main.c        **** ***********************************************************************/
  33:main.c        ****  
  34:main.c        **** /***********************************************************************
  35:main.c        **** * Constant
  36:main.c        **** ***********************************************************************/
  37:main.c        ****  
  38:main.c        **** /***********************************************************************
  39:main.c        **** * Local Funtions
  40:main.c        **** ***********************************************************************/
  41:main.c        **** 
  42:main.c        **** 
  43:main.c        ****     
  44:main.c        **** /***********************************************************************
  45:main.c        **** *! \fn          int16_t create_fb(char *dataPtr, byte *fb)
  46:main.c        **** *  \brief       reset the Framebuffer
  47:main.c        **** *  \param       dataPtr String to scroll across
  48:main.c        **** *  \param       fb Pointer to the frame buffer array
  49:main.c        **** *  \exception   none
  50:main.c        **** *  \return      length of frame buffer
  51:main.c        **** ***********************************************************************/  
  52:main.c        **** CY_ISR(MyCustomISR){
 922              		.loc 2 52 0
 923              		.cfi_startproc
 924              		@ args = 0, pretend = 0, frame = 0
 925              		@ frame_needed = 0, uses_anonymous_args = 0
 926              		@ link register save eliminated.
 927 0000 7047     		bx	lr
 928              		.cfi_endproc
 929              	.LFE70:
 930              		.size	MyCustomISR, .-MyCustomISR
 931 0002 00BF     		.section	.text.main,"ax",%progbits
 932              		.align	2
 933              		.global	main
 934              		.thumb
 935              		.thumb_func
 936              		.type	main, %function
 937              	main:
 938              	.LFB71:
ARM GAS  C:\Users\user\AppData\Local\Temp\ccJgTzij.s 			page 27


  53:main.c        ****         
  54:main.c        **** }
  55:main.c        **** 
  56:main.c        **** 
  57:main.c        **** int main(void)
  58:main.c        **** {
 939              		.loc 2 58 0
 940              		.cfi_startproc
 941              		@ args = 0, pretend = 0, frame = 256
 942              		@ frame_needed = 0, uses_anonymous_args = 0
 943              		.loc 2 58 0
 944 0000 00B5     		push	{lr}
 945              		.cfi_def_cfa_offset 4
 946              		.cfi_offset 14, -4
 947 0002 C1B0     		sub	sp, sp, #260
 948              		.cfi_def_cfa_offset 264
  59:main.c        ****     
  60:main.c        ****     char uart_buffer[256];
  61:main.c        ****     
  62:main.c        ****     /* Place your initialization/startup code here (e.g. MyInst_Start()) */
  63:main.c        ****     UART_1_Enable();
 949              		.loc 2 63 0
 950 0004 FFF7FEFF 		bl	UART_1_Enable
 951              	.LVL80:
  64:main.c        ****     UART_1_Start();
 952              		.loc 2 64 0
 953 0008 FFF7FEFF 		bl	UART_1_Start
 954              	.LVL81:
  65:main.c        ****     UART_1_ClearTxBuffer();
 955              		.loc 2 65 0
 956 000c FFF7FEFF 		bl	UART_1_ClearTxBuffer
 957              	.LVL82:
  66:main.c        ****     Range_CLK_Start();
 958              		.loc 2 66 0
 959 0010 FFF7FEFF 		bl	Range_CLK_Start
 960              	.LVL83:
  67:main.c        ****     CNT_RESET_Write(0);
 961              		.loc 2 67 0
 962 0014 0020     		movs	r0, #0
 963 0016 FFF7FEFF 		bl	CNT_RESET_Write
 964              	.LVL84:
  68:main.c        ****     CyGlobalIntEnable; /* Enable global interrupts. */
 965              		.loc 2 68 0
 966              		.syntax unified
 967              	@ 68 "main.c" 1
 968 001a 62B6     		CPSIE   i
 969              	@ 0 "" 2
 970              		.thumb
 971              		.syntax unified
 972              	.L79:
  69:main.c        ****     
  70:main.c        **** 
  71:main.c        ****     for(;;)
  72:main.c        ****     {
  73:main.c        ****         
  74:main.c        ****         CNT_RESET_Write(0);
 973              		.loc 2 74 0
ARM GAS  C:\Users\user\AppData\Local\Temp\ccJgTzij.s 			page 28


 974 001c 0020     		movs	r0, #0
 975 001e FFF7FEFF 		bl	CNT_RESET_Write
 976              	.LVL85:
  75:main.c        ****         CyDelay(1u);
 977              		.loc 2 75 0
 978 0022 0120     		movs	r0, #1
 979 0024 FFF7FEFF 		bl	CyDelay
 980              	.LVL86:
  76:main.c        ****         CNT_RESET_Write(1);
 981              		.loc 2 76 0
 982 0028 0120     		movs	r0, #1
 983 002a FFF7FEFF 		bl	CNT_RESET_Write
 984              	.LVL87:
  77:main.c        ****         CyDelay(1u);
 985              		.loc 2 77 0
 986 002e 0120     		movs	r0, #1
 987 0030 FFF7FEFF 		bl	CyDelay
 988              	.LVL88:
  78:main.c        ****         CNT_RESET_Write(0);
 989              		.loc 2 78 0
 990 0034 0020     		movs	r0, #0
 991 0036 FFF7FEFF 		bl	CNT_RESET_Write
 992              	.LVL89:
  79:main.c        ****         HC_SR04_1_Trigger_Write(1);
 993              		.loc 2 79 0
 994 003a 0120     		movs	r0, #1
 995 003c FFF7FEFF 		bl	HC_SR04_1_Trigger_Write
 996              	.LVL90:
  80:main.c        ****         CyDelay(1u);
 997              		.loc 2 80 0
 998 0040 0120     		movs	r0, #1
 999 0042 FFF7FEFF 		bl	CyDelay
 1000              	.LVL91:
  81:main.c        ****         HC_SR04_1_Trigger_Write(0);
 1001              		.loc 2 81 0
 1002 0046 0020     		movs	r0, #0
 1003 0048 FFF7FEFF 		bl	HC_SR04_1_Trigger_Write
 1004              	.LVL92:
  82:main.c        ****         CyDelay(10000u);
 1005              		.loc 2 82 0
 1006 004c 42F21070 		movw	r0, #10000
 1007 0050 FFF7FEFF 		bl	CyDelay
 1008              	.LVL93:
 1009              	.L78:
  83:main.c        ****         
  84:main.c        ****         /* Place your application code here. */
  85:main.c        ****         //wait for empty queue
  86:main.c        ****         while(UART_1_ReadTxStatus()& UART_1_TX_STS_FIFO_FULL ){
 1010              		.loc 2 86 0 discriminator 1
 1011 0054 FFF7FEFF 		bl	UART_1_ReadTxStatus
 1012              	.LVL94:
 1013 0058 10F0040F 		tst	r0, #4
 1014 005c FAD1     		bne	.L78
  87:main.c        ****         };
  88:main.c        ****         
  89:main.c        ****         //User_LED_Write(!User_LED_Read());
  90:main.c        ****         sprintf(uart_buffer,"Distance %u cm \r\n",Range_1_Read());
ARM GAS  C:\Users\user\AppData\Local\Temp\ccJgTzij.s 			page 29


 1015              		.loc 2 90 0
 1016 005e FFF7FEFF 		bl	Range_1_Read
 1017              	.LVL95:
 1018 0062 0246     		mov	r2, r0
 1019 0064 0349     		ldr	r1, .L81
 1020 0066 6846     		mov	r0, sp
 1021 0068 FFF7FEFF 		bl	sprintf
 1022              	.LVL96:
  91:main.c        ****         UART_1_PutString(uart_buffer);
 1023              		.loc 2 91 0
 1024 006c 6846     		mov	r0, sp
 1025 006e FFF7FEFF 		bl	UART_1_PutString
 1026              	.LVL97:
  92:main.c        ****         
  93:main.c        ****         
  94:main.c        ****         
  95:main.c        ****         
  96:main.c        ****         //CyPmSleep(PM_SLEEP_TIME_NONE, PM_SLEEP_SRC_CTW);
  97:main.c        ****         
  98:main.c        ****         
  99:main.c        ****     }
 1027              		.loc 2 99 0
 1028 0072 D3E7     		b	.L79
 1029              	.L82:
 1030              		.align	2
 1031              	.L81:
 1032 0074 00000000 		.word	.LC0
 1033              		.cfi_endproc
 1034              	.LFE71:
 1035              		.size	main, .-main
 1036              		.section	.rodata.str1.4,"aMS",%progbits,1
 1037              		.align	2
 1038              	.LC0:
 1039 0000 44697374 		.ascii	"Distance %u cm \015\012\000"
 1039      616E6365 
 1039      20257520 
 1039      636D200D 
 1039      0A00
 1040              		.text
 1041              	.Letext0:
 1042              		.file 3 "c:\\program files (x86)\\cypress\\psoc creator\\4.4\\psoc creator\\import\\gnu\\arm\\5.4.
 1043              		.file 4 "c:\\program files (x86)\\cypress\\psoc creator\\4.4\\psoc creator\\import\\gnu\\arm\\5.4.
 1044              		.file 5 "Generated_Source\\PSoC5/cytypes.h"
 1045              		.file 6 "c:\\program files (x86)\\cypress\\psoc creator\\4.4\\psoc creator\\import\\gnu\\arm\\5.4.
 1046              		.file 7 "Generated_Source\\PSoC5/UART_1.h"
 1047              		.file 8 "Generated_Source\\PSoC5/Range_CLK.h"
 1048              		.file 9 "Generated_Source\\PSoC5/CNT_RESET.h"
 1049              		.file 10 "Generated_Source\\PSoC5/CyLib.h"
 1050              		.file 11 "Generated_Source\\PSoC5/HC_SR04_1_Trigger.h"
 1051              		.file 12 "Generated_Source\\PSoC5/Range_1.h"
 1052              		.file 13 "c:\\program files (x86)\\cypress\\psoc creator\\4.4\\psoc creator\\import\\gnu\\arm\\5.4
 1053              		.file 14 "Generated_Source\\PSoC5/core_cm3.h"